

Microchip Technology PIC LITE Macro Assembler V1.33 build 59893 
                                                                                               Fri Feb 13 17:44:31 2015

Microchip Technology Omniscient Code Generator (Lite mode) build 59893
     1                           	processor	16F1704
     2                           	opt	pw 120
     3                           	opt	lm
     4                           	psect	text0,local,class=CODE,merge=1,delta=2
     5                           	psect	cinit,global,class=CODE,merge=1,delta=2
     6                           	psect	cstackCOMMON,global,class=COMMON,space=1,delta=1
     7                           	psect	cstackBANK0,global,class=BANK0,space=1,delta=1
     8                           	psect	maintext,global,class=CODE,merge=1,split=1,delta=2
     9                           	psect	text1,local,class=CODE,merge=1,delta=2
    10                           	psect	text2,local,class=CODE,merge=1,delta=2
    11                           	psect	text3,local,class=CODE,merge=1,delta=2
    12                           	psect	text4,local,class=CODE,merge=1,delta=2
    13                           	psect	text5,local,class=CODE,merge=1,delta=2
    14                           	psect	text6,local,class=CODE,merge=1,delta=2
    15                           	psect	text7,local,class=CODE,merge=1,delta=2
    16                           	psect	text8,local,class=CODE,merge=1,delta=2
    17                           	psect	text9,local,class=CODE,merge=1,delta=2
    18                           	psect	text10,local,class=CODE,merge=1,delta=2
    19                           	psect	text11,local,class=CODE,merge=1,delta=2
    20                           	psect	text12,local,class=CODE,merge=1,delta=2
    21                           	psect	text13,local,class=CODE,merge=1,delta=2
    22                           	dabs	1,0x7E,2
    23  0000                     	;# 
    24  0001                     	;# 
    25  0002                     	;# 
    26  0003                     	;# 
    27  0004                     	;# 
    28  0005                     	;# 
    29  0006                     	;# 
    30  0007                     	;# 
    31  0008                     	;# 
    32  0009                     	;# 
    33  000A                     	;# 
    34  000B                     	;# 
    35  000C                     	;# 
    36  000E                     	;# 
    37  0011                     	;# 
    38  0012                     	;# 
    39  0013                     	;# 
    40  0015                     	;# 
    41  0016                     	;# 
    42  0016                     	;# 
    43  0017                     	;# 
    44  0018                     	;# 
    45  0019                     	;# 
    46  001A                     	;# 
    47  001B                     	;# 
    48  001C                     	;# 
    49  008C                     	;# 
    50  008E                     	;# 
    51  0091                     	;# 
    52  0092                     	;# 
    53  0093                     	;# 
    54  0095                     	;# 
    55  0096                     	;# 
    56  0097                     	;# 
    57  0098                     	;# 
    58  0099                     	;# 
    59  009A                     	;# 
    60  009B                     	;# 
    61  009B                     	;# 
    62  009C                     	;# 
    63  009D                     	;# 
    64  009E                     	;# 
    65  009F                     	;# 
    66  010C                     	;# 
    67  010E                     	;# 
    68  0111                     	;# 
    69  0112                     	;# 
    70  0113                     	;# 
    71  0114                     	;# 
    72  0115                     	;# 
    73  0116                     	;# 
    74  0117                     	;# 
    75  0118                     	;# 
    76  0119                     	;# 
    77  011C                     	;# 
    78  018C                     	;# 
    79  018E                     	;# 
    80  0191                     	;# 
    81  0191                     	;# 
    82  0192                     	;# 
    83  0193                     	;# 
    84  0193                     	;# 
    85  0194                     	;# 
    86  0195                     	;# 
    87  0196                     	;# 
    88  0197                     	;# 
    89  0199                     	;# 
    90  0199                     	;# 
    91  0199                     	;# 
    92  019A                     	;# 
    93  019A                     	;# 
    94  019A                     	;# 
    95  019B                     	;# 
    96  019B                     	;# 
    97  019B                     	;# 
    98  019B                     	;# 
    99  019B                     	;# 
   100  019C                     	;# 
   101  019C                     	;# 
   102  019C                     	;# 
   103  019D                     	;# 
   104  019D                     	;# 
   105  019D                     	;# 
   106  019E                     	;# 
   107  019E                     	;# 
   108  019E                     	;# 
   109  019F                     	;# 
   110  019F                     	;# 
   111  019F                     	;# 
   112  019F                     	;# 
   113  019F                     	;# 
   114  020C                     	;# 
   115  020E                     	;# 
   116  0211                     	;# 
   117  0211                     	;# 
   118  0212                     	;# 
   119  0212                     	;# 
   120  0213                     	;# 
   121  0213                     	;# 
   122  0214                     	;# 
   123  0214                     	;# 
   124  0215                     	;# 
   125  0215                     	;# 
   126  0215                     	;# 
   127  0215                     	;# 
   128  0216                     	;# 
   129  0216                     	;# 
   130  0217                     	;# 
   131  0217                     	;# 
   132  028C                     	;# 
   133  028E                     	;# 
   134  0291                     	;# 
   135  0291                     	;# 
   136  0292                     	;# 
   137  0293                     	;# 
   138  0293                     	;# 
   139  0298                     	;# 
   140  0298                     	;# 
   141  0299                     	;# 
   142  029A                     	;# 
   143  029A                     	;# 
   144  029E                     	;# 
   145  030C                     	;# 
   146  030E                     	;# 
   147  038C                     	;# 
   148  038E                     	;# 
   149  0391                     	;# 
   150  0392                     	;# 
   151  0393                     	;# 
   152  0397                     	;# 
   153  0398                     	;# 
   154  0399                     	;# 
   155  0415                     	;# 
   156  0416                     	;# 
   157  0417                     	;# 
   158  041C                     	;# 
   159  041D                     	;# 
   160  041E                     	;# 
   161  0511                     	;# 
   162  0515                     	;# 
   163  0617                     	;# 
   164  0618                     	;# 
   165  0619                     	;# 
   166  0619                     	;# 
   167  061A                     	;# 
   168  061B                     	;# 
   169  061C                     	;# 
   170  061C                     	;# 
   171  0691                     	;# 
   172  0692                     	;# 
   173  0693                     	;# 
   174  0694                     	;# 
   175  0695                     	;# 
   176  0696                     	;# 
   177  0697                     	;# 
   178  0698                     	;# 
   179  0699                     	;# 
   180  069A                     	;# 
   181  069B                     	;# 
   182  069C                     	;# 
   183  069D                     	;# 
   184  069E                     	;# 
   185  069F                     	;# 
   186  0E0F                     	;# 
   187  0E10                     	;# 
   188  0E11                     	;# 
   189  0E12                     	;# 
   190  0E13                     	;# 
   191  0E14                     	;# 
   192  0E15                     	;# 
   193  0E17                     	;# 
   194  0E20                     	;# 
   195  0E21                     	;# 
   196  0E22                     	;# 
   197  0E24                     	;# 
   198  0E25                     	;# 
   199  0E28                     	;# 
   200  0E29                     	;# 
   201  0E2A                     	;# 
   202  0E2B                     	;# 
   203  0E90                     	;# 
   204  0E91                     	;# 
   205  0E92                     	;# 
   206  0E94                     	;# 
   207  0E95                     	;# 
   208  0EA0                     	;# 
   209  0EA1                     	;# 
   210  0EA2                     	;# 
   211  0EA3                     	;# 
   212  0EA4                     	;# 
   213  0EA5                     	;# 
   214  0F0F                     	;# 
   215  0F10                     	;# 
   216  0F11                     	;# 
   217  0F12                     	;# 
   218  0F13                     	;# 
   219  0F14                     	;# 
   220  0F15                     	;# 
   221  0F16                     	;# 
   222  0F17                     	;# 
   223  0F18                     	;# 
   224  0F19                     	;# 
   225  0F1A                     	;# 
   226  0F1B                     	;# 
   227  0F1C                     	;# 
   228  0F1D                     	;# 
   229  0F1E                     	;# 
   230  0F1F                     	;# 
   231  0F20                     	;# 
   232  0F21                     	;# 
   233  0F22                     	;# 
   234  0F23                     	;# 
   235  0F24                     	;# 
   236  0F25                     	;# 
   237  0F26                     	;# 
   238  0F27                     	;# 
   239  0F28                     	;# 
   240  0F29                     	;# 
   241  0F2A                     	;# 
   242  0F2B                     	;# 
   243  0F2C                     	;# 
   244  0F2D                     	;# 
   245  0FE4                     	;# 
   246  0FE5                     	;# 
   247  0FE6                     	;# 
   248  0FE7                     	;# 
   249  0FE8                     	;# 
   250  0FE9                     	;# 
   251  0FEA                     	;# 
   252  0FEB                     	;# 
   253  0FED                     	;# 
   254  0FEE                     	;# 
   255  0FEF                     	;# 
   256  0000                     	;# 
   257  0001                     	;# 
   258  0002                     	;# 
   259  0003                     	;# 
   260  0004                     	;# 
   261  0005                     	;# 
   262  0006                     	;# 
   263  0007                     	;# 
   264  0008                     	;# 
   265  0009                     	;# 
   266  000A                     	;# 
   267  000B                     	;# 
   268  000C                     	;# 
   269  000E                     	;# 
   270  0011                     	;# 
   271  0012                     	;# 
   272  0013                     	;# 
   273  0015                     	;# 
   274  0016                     	;# 
   275  0016                     	;# 
   276  0017                     	;# 
   277  0018                     	;# 
   278  0019                     	;# 
   279  001A                     	;# 
   280  001B                     	;# 
   281  001C                     	;# 
   282  008C                     	;# 
   283  008E                     	;# 
   284  0091                     	;# 
   285  0092                     	;# 
   286  0093                     	;# 
   287  0095                     	;# 
   288  0096                     	;# 
   289  0097                     	;# 
   290  0098                     	;# 
   291  0099                     	;# 
   292  009A                     	;# 
   293  009B                     	;# 
   294  009B                     	;# 
   295  009C                     	;# 
   296  009D                     	;# 
   297  009E                     	;# 
   298  009F                     	;# 
   299  010C                     	;# 
   300  010E                     	;# 
   301  0111                     	;# 
   302  0112                     	;# 
   303  0113                     	;# 
   304  0114                     	;# 
   305  0115                     	;# 
   306  0116                     	;# 
   307  0117                     	;# 
   308  0118                     	;# 
   309  0119                     	;# 
   310  011C                     	;# 
   311  018C                     	;# 
   312  018E                     	;# 
   313  0191                     	;# 
   314  0191                     	;# 
   315  0192                     	;# 
   316  0193                     	;# 
   317  0193                     	;# 
   318  0194                     	;# 
   319  0195                     	;# 
   320  0196                     	;# 
   321  0197                     	;# 
   322  0199                     	;# 
   323  0199                     	;# 
   324  0199                     	;# 
   325  019A                     	;# 
   326  019A                     	;# 
   327  019A                     	;# 
   328  019B                     	;# 
   329  019B                     	;# 
   330  019B                     	;# 
   331  019B                     	;# 
   332  019B                     	;# 
   333  019C                     	;# 
   334  019C                     	;# 
   335  019C                     	;# 
   336  019D                     	;# 
   337  019D                     	;# 
   338  019D                     	;# 
   339  019E                     	;# 
   340  019E                     	;# 
   341  019E                     	;# 
   342  019F                     	;# 
   343  019F                     	;# 
   344  019F                     	;# 
   345  019F                     	;# 
   346  019F                     	;# 
   347  020C                     	;# 
   348  020E                     	;# 
   349  0211                     	;# 
   350  0211                     	;# 
   351  0212                     	;# 
   352  0212                     	;# 
   353  0213                     	;# 
   354  0213                     	;# 
   355  0214                     	;# 
   356  0214                     	;# 
   357  0215                     	;# 
   358  0215                     	;# 
   359  0215                     	;# 
   360  0215                     	;# 
   361  0216                     	;# 
   362  0216                     	;# 
   363  0217                     	;# 
   364  0217                     	;# 
   365  028C                     	;# 
   366  028E                     	;# 
   367  0291                     	;# 
   368  0291                     	;# 
   369  0292                     	;# 
   370  0293                     	;# 
   371  0293                     	;# 
   372  0298                     	;# 
   373  0298                     	;# 
   374  0299                     	;# 
   375  029A                     	;# 
   376  029A                     	;# 
   377  029E                     	;# 
   378  030C                     	;# 
   379  030E                     	;# 
   380  038C                     	;# 
   381  038E                     	;# 
   382  0391                     	;# 
   383  0392                     	;# 
   384  0393                     	;# 
   385  0397                     	;# 
   386  0398                     	;# 
   387  0399                     	;# 
   388  0415                     	;# 
   389  0416                     	;# 
   390  0417                     	;# 
   391  041C                     	;# 
   392  041D                     	;# 
   393  041E                     	;# 
   394  0511                     	;# 
   395  0515                     	;# 
   396  0617                     	;# 
   397  0618                     	;# 
   398  0619                     	;# 
   399  0619                     	;# 
   400  061A                     	;# 
   401  061B                     	;# 
   402  061C                     	;# 
   403  061C                     	;# 
   404  0691                     	;# 
   405  0692                     	;# 
   406  0693                     	;# 
   407  0694                     	;# 
   408  0695                     	;# 
   409  0696                     	;# 
   410  0697                     	;# 
   411  0698                     	;# 
   412  0699                     	;# 
   413  069A                     	;# 
   414  069B                     	;# 
   415  069C                     	;# 
   416  069D                     	;# 
   417  069E                     	;# 
   418  069F                     	;# 
   419  0E0F                     	;# 
   420  0E10                     	;# 
   421  0E11                     	;# 
   422  0E12                     	;# 
   423  0E13                     	;# 
   424  0E14                     	;# 
   425  0E15                     	;# 
   426  0E17                     	;# 
   427  0E20                     	;# 
   428  0E21                     	;# 
   429  0E22                     	;# 
   430  0E24                     	;# 
   431  0E25                     	;# 
   432  0E28                     	;# 
   433  0E29                     	;# 
   434  0E2A                     	;# 
   435  0E2B                     	;# 
   436  0E90                     	;# 
   437  0E91                     	;# 
   438  0E92                     	;# 
   439  0E94                     	;# 
   440  0E95                     	;# 
   441  0EA0                     	;# 
   442  0EA1                     	;# 
   443  0EA2                     	;# 
   444  0EA3                     	;# 
   445  0EA4                     	;# 
   446  0EA5                     	;# 
   447  0F0F                     	;# 
   448  0F10                     	;# 
   449  0F11                     	;# 
   450  0F12                     	;# 
   451  0F13                     	;# 
   452  0F14                     	;# 
   453  0F15                     	;# 
   454  0F16                     	;# 
   455  0F17                     	;# 
   456  0F18                     	;# 
   457  0F19                     	;# 
   458  0F1A                     	;# 
   459  0F1B                     	;# 
   460  0F1C                     	;# 
   461  0F1D                     	;# 
   462  0F1E                     	;# 
   463  0F1F                     	;# 
   464  0F20                     	;# 
   465  0F21                     	;# 
   466  0F22                     	;# 
   467  0F23                     	;# 
   468  0F24                     	;# 
   469  0F25                     	;# 
   470  0F26                     	;# 
   471  0F27                     	;# 
   472  0F28                     	;# 
   473  0F29                     	;# 
   474  0F2A                     	;# 
   475  0F2B                     	;# 
   476  0F2C                     	;# 
   477  0F2D                     	;# 
   478  0FE4                     	;# 
   479  0FE5                     	;# 
   480  0FE6                     	;# 
   481  0FE7                     	;# 
   482  0FE8                     	;# 
   483  0FE9                     	;# 
   484  0FEA                     	;# 
   485  0FEB                     	;# 
   486  0FED                     	;# 
   487  0FEE                     	;# 
   488  0FEF                     	;# 
   489  0000                     	;# 
   490  0001                     	;# 
   491  0002                     	;# 
   492  0003                     	;# 
   493  0004                     	;# 
   494  0005                     	;# 
   495  0006                     	;# 
   496  0007                     	;# 
   497  0008                     	;# 
   498  0009                     	;# 
   499  000A                     	;# 
   500  000B                     	;# 
   501  000C                     	;# 
   502  000E                     	;# 
   503  0011                     	;# 
   504  0012                     	;# 
   505  0013                     	;# 
   506  0015                     	;# 
   507  0016                     	;# 
   508  0016                     	;# 
   509  0017                     	;# 
   510  0018                     	;# 
   511  0019                     	;# 
   512  001A                     	;# 
   513  001B                     	;# 
   514  001C                     	;# 
   515  008C                     	;# 
   516  008E                     	;# 
   517  0091                     	;# 
   518  0092                     	;# 
   519  0093                     	;# 
   520  0095                     	;# 
   521  0096                     	;# 
   522  0097                     	;# 
   523  0098                     	;# 
   524  0099                     	;# 
   525  009A                     	;# 
   526  009B                     	;# 
   527  009B                     	;# 
   528  009C                     	;# 
   529  009D                     	;# 
   530  009E                     	;# 
   531  009F                     	;# 
   532  010C                     	;# 
   533  010E                     	;# 
   534  0111                     	;# 
   535  0112                     	;# 
   536  0113                     	;# 
   537  0114                     	;# 
   538  0115                     	;# 
   539  0116                     	;# 
   540  0117                     	;# 
   541  0118                     	;# 
   542  0119                     	;# 
   543  011C                     	;# 
   544  018C                     	;# 
   545  018E                     	;# 
   546  0191                     	;# 
   547  0191                     	;# 
   548  0192                     	;# 
   549  0193                     	;# 
   550  0193                     	;# 
   551  0194                     	;# 
   552  0195                     	;# 
   553  0196                     	;# 
   554  0197                     	;# 
   555  0199                     	;# 
   556  0199                     	;# 
   557  0199                     	;# 
   558  019A                     	;# 
   559  019A                     	;# 
   560  019A                     	;# 
   561  019B                     	;# 
   562  019B                     	;# 
   563  019B                     	;# 
   564  019B                     	;# 
   565  019B                     	;# 
   566  019C                     	;# 
   567  019C                     	;# 
   568  019C                     	;# 
   569  019D                     	;# 
   570  019D                     	;# 
   571  019D                     	;# 
   572  019E                     	;# 
   573  019E                     	;# 
   574  019E                     	;# 
   575  019F                     	;# 
   576  019F                     	;# 
   577  019F                     	;# 
   578  019F                     	;# 
   579  019F                     	;# 
   580  020C                     	;# 
   581  020E                     	;# 
   582  0211                     	;# 
   583  0211                     	;# 
   584  0212                     	;# 
   585  0212                     	;# 
   586  0213                     	;# 
   587  0213                     	;# 
   588  0214                     	;# 
   589  0214                     	;# 
   590  0215                     	;# 
   591  0215                     	;# 
   592  0215                     	;# 
   593  0215                     	;# 
   594  0216                     	;# 
   595  0216                     	;# 
   596  0217                     	;# 
   597  0217                     	;# 
   598  028C                     	;# 
   599  028E                     	;# 
   600  0291                     	;# 
   601  0291                     	;# 
   602  0292                     	;# 
   603  0293                     	;# 
   604  0293                     	;# 
   605  0298                     	;# 
   606  0298                     	;# 
   607  0299                     	;# 
   608  029A                     	;# 
   609  029A                     	;# 
   610  029E                     	;# 
   611  030C                     	;# 
   612  030E                     	;# 
   613  038C                     	;# 
   614  038E                     	;# 
   615  0391                     	;# 
   616  0392                     	;# 
   617  0393                     	;# 
   618  0397                     	;# 
   619  0398                     	;# 
   620  0399                     	;# 
   621  0415                     	;# 
   622  0416                     	;# 
   623  0417                     	;# 
   624  041C                     	;# 
   625  041D                     	;# 
   626  041E                     	;# 
   627  0511                     	;# 
   628  0515                     	;# 
   629  0617                     	;# 
   630  0618                     	;# 
   631  0619                     	;# 
   632  0619                     	;# 
   633  061A                     	;# 
   634  061B                     	;# 
   635  061C                     	;# 
   636  061C                     	;# 
   637  0691                     	;# 
   638  0692                     	;# 
   639  0693                     	;# 
   640  0694                     	;# 
   641  0695                     	;# 
   642  0696                     	;# 
   643  0697                     	;# 
   644  0698                     	;# 
   645  0699                     	;# 
   646  069A                     	;# 
   647  069B                     	;# 
   648  069C                     	;# 
   649  069D                     	;# 
   650  069E                     	;# 
   651  069F                     	;# 
   652  0E0F                     	;# 
   653  0E10                     	;# 
   654  0E11                     	;# 
   655  0E12                     	;# 
   656  0E13                     	;# 
   657  0E14                     	;# 
   658  0E15                     	;# 
   659  0E17                     	;# 
   660  0E20                     	;# 
   661  0E21                     	;# 
   662  0E22                     	;# 
   663  0E24                     	;# 
   664  0E25                     	;# 
   665  0E28                     	;# 
   666  0E29                     	;# 
   667  0E2A                     	;# 
   668  0E2B                     	;# 
   669  0E90                     	;# 
   670  0E91                     	;# 
   671  0E92                     	;# 
   672  0E94                     	;# 
   673  0E95                     	;# 
   674  0EA0                     	;# 
   675  0EA1                     	;# 
   676  0EA2                     	;# 
   677  0EA3                     	;# 
   678  0EA4                     	;# 
   679  0EA5                     	;# 
   680  0F0F                     	;# 
   681  0F10                     	;# 
   682  0F11                     	;# 
   683  0F12                     	;# 
   684  0F13                     	;# 
   685  0F14                     	;# 
   686  0F15                     	;# 
   687  0F16                     	;# 
   688  0F17                     	;# 
   689  0F18                     	;# 
   690  0F19                     	;# 
   691  0F1A                     	;# 
   692  0F1B                     	;# 
   693  0F1C                     	;# 
   694  0F1D                     	;# 
   695  0F1E                     	;# 
   696  0F1F                     	;# 
   697  0F20                     	;# 
   698  0F21                     	;# 
   699  0F22                     	;# 
   700  0F23                     	;# 
   701  0F24                     	;# 
   702  0F25                     	;# 
   703  0F26                     	;# 
   704  0F27                     	;# 
   705  0F28                     	;# 
   706  0F29                     	;# 
   707  0F2A                     	;# 
   708  0F2B                     	;# 
   709  0F2C                     	;# 
   710  0F2D                     	;# 
   711  0FE4                     	;# 
   712  0FE5                     	;# 
   713  0FE6                     	;# 
   714  0FE7                     	;# 
   715  0FE8                     	;# 
   716  0FE9                     	;# 
   717  0FEA                     	;# 
   718  0FEB                     	;# 
   719  0FED                     	;# 
   720  0FEE                     	;# 
   721  0FEF                     	;# 
   722  0000                     	;# 
   723  0001                     	;# 
   724  0002                     	;# 
   725  0003                     	;# 
   726  0004                     	;# 
   727  0005                     	;# 
   728  0006                     	;# 
   729  0007                     	;# 
   730  0008                     	;# 
   731  0009                     	;# 
   732  000A                     	;# 
   733  000B                     	;# 
   734  000C                     	;# 
   735  000E                     	;# 
   736  0011                     	;# 
   737  0012                     	;# 
   738  0013                     	;# 
   739  0015                     	;# 
   740  0016                     	;# 
   741  0016                     	;# 
   742  0017                     	;# 
   743  0018                     	;# 
   744  0019                     	;# 
   745  001A                     	;# 
   746  001B                     	;# 
   747  001C                     	;# 
   748  008C                     	;# 
   749  008E                     	;# 
   750  0091                     	;# 
   751  0092                     	;# 
   752  0093                     	;# 
   753  0095                     	;# 
   754  0096                     	;# 
   755  0097                     	;# 
   756  0098                     	;# 
   757  0099                     	;# 
   758  009A                     	;# 
   759  009B                     	;# 
   760  009B                     	;# 
   761  009C                     	;# 
   762  009D                     	;# 
   763  009E                     	;# 
   764  009F                     	;# 
   765  010C                     	;# 
   766  010E                     	;# 
   767  0111                     	;# 
   768  0112                     	;# 
   769  0113                     	;# 
   770  0114                     	;# 
   771  0115                     	;# 
   772  0116                     	;# 
   773  0117                     	;# 
   774  0118                     	;# 
   775  0119                     	;# 
   776  011C                     	;# 
   777  018C                     	;# 
   778  018E                     	;# 
   779  0191                     	;# 
   780  0191                     	;# 
   781  0192                     	;# 
   782  0193                     	;# 
   783  0193                     	;# 
   784  0194                     	;# 
   785  0195                     	;# 
   786  0196                     	;# 
   787  0197                     	;# 
   788  0199                     	;# 
   789  0199                     	;# 
   790  0199                     	;# 
   791  019A                     	;# 
   792  019A                     	;# 
   793  019A                     	;# 
   794  019B                     	;# 
   795  019B                     	;# 
   796  019B                     	;# 
   797  019B                     	;# 
   798  019B                     	;# 
   799  019C                     	;# 
   800  019C                     	;# 
   801  019C                     	;# 
   802  019D                     	;# 
   803  019D                     	;# 
   804  019D                     	;# 
   805  019E                     	;# 
   806  019E                     	;# 
   807  019E                     	;# 
   808  019F                     	;# 
   809  019F                     	;# 
   810  019F                     	;# 
   811  019F                     	;# 
   812  019F                     	;# 
   813  020C                     	;# 
   814  020E                     	;# 
   815  0211                     	;# 
   816  0211                     	;# 
   817  0212                     	;# 
   818  0212                     	;# 
   819  0213                     	;# 
   820  0213                     	;# 
   821  0214                     	;# 
   822  0214                     	;# 
   823  0215                     	;# 
   824  0215                     	;# 
   825  0215                     	;# 
   826  0215                     	;# 
   827  0216                     	;# 
   828  0216                     	;# 
   829  0217                     	;# 
   830  0217                     	;# 
   831  028C                     	;# 
   832  028E                     	;# 
   833  0291                     	;# 
   834  0291                     	;# 
   835  0292                     	;# 
   836  0293                     	;# 
   837  0293                     	;# 
   838  0298                     	;# 
   839  0298                     	;# 
   840  0299                     	;# 
   841  029A                     	;# 
   842  029A                     	;# 
   843  029E                     	;# 
   844  030C                     	;# 
   845  030E                     	;# 
   846  038C                     	;# 
   847  038E                     	;# 
   848  0391                     	;# 
   849  0392                     	;# 
   850  0393                     	;# 
   851  0397                     	;# 
   852  0398                     	;# 
   853  0399                     	;# 
   854  0415                     	;# 
   855  0416                     	;# 
   856  0417                     	;# 
   857  041C                     	;# 
   858  041D                     	;# 
   859  041E                     	;# 
   860  0511                     	;# 
   861  0515                     	;# 
   862  0617                     	;# 
   863  0618                     	;# 
   864  0619                     	;# 
   865  0619                     	;# 
   866  061A                     	;# 
   867  061B                     	;# 
   868  061C                     	;# 
   869  061C                     	;# 
   870  0691                     	;# 
   871  0692                     	;# 
   872  0693                     	;# 
   873  0694                     	;# 
   874  0695                     	;# 
   875  0696                     	;# 
   876  0697                     	;# 
   877  0698                     	;# 
   878  0699                     	;# 
   879  069A                     	;# 
   880  069B                     	;# 
   881  069C                     	;# 
   882  069D                     	;# 
   883  069E                     	;# 
   884  069F                     	;# 
   885  0E0F                     	;# 
   886  0E10                     	;# 
   887  0E11                     	;# 
   888  0E12                     	;# 
   889  0E13                     	;# 
   890  0E14                     	;# 
   891  0E15                     	;# 
   892  0E17                     	;# 
   893  0E20                     	;# 
   894  0E21                     	;# 
   895  0E22                     	;# 
   896  0E24                     	;# 
   897  0E25                     	;# 
   898  0E28                     	;# 
   899  0E29                     	;# 
   900  0E2A                     	;# 
   901  0E2B                     	;# 
   902  0E90                     	;# 
   903  0E91                     	;# 
   904  0E92                     	;# 
   905  0E94                     	;# 
   906  0E95                     	;# 
   907  0EA0                     	;# 
   908  0EA1                     	;# 
   909  0EA2                     	;# 
   910  0EA3                     	;# 
   911  0EA4                     	;# 
   912  0EA5                     	;# 
   913  0F0F                     	;# 
   914  0F10                     	;# 
   915  0F11                     	;# 
   916  0F12                     	;# 
   917  0F13                     	;# 
   918  0F14                     	;# 
   919  0F15                     	;# 
   920  0F16                     	;# 
   921  0F17                     	;# 
   922  0F18                     	;# 
   923  0F19                     	;# 
   924  0F1A                     	;# 
   925  0F1B                     	;# 
   926  0F1C                     	;# 
   927  0F1D                     	;# 
   928  0F1E                     	;# 
   929  0F1F                     	;# 
   930  0F20                     	;# 
   931  0F21                     	;# 
   932  0F22                     	;# 
   933  0F23                     	;# 
   934  0F24                     	;# 
   935  0F25                     	;# 
   936  0F26                     	;# 
   937  0F27                     	;# 
   938  0F28                     	;# 
   939  0F29                     	;# 
   940  0F2A                     	;# 
   941  0F2B                     	;# 
   942  0F2C                     	;# 
   943  0F2D                     	;# 
   944  0FE4                     	;# 
   945  0FE5                     	;# 
   946  0FE6                     	;# 
   947  0FE7                     	;# 
   948  0FE8                     	;# 
   949  0FE9                     	;# 
   950  0FEA                     	;# 
   951  0FEB                     	;# 
   952  0FED                     	;# 
   953  0FEE                     	;# 
   954  0FEF                     	;# 
   955  0000                     	;# 
   956  0001                     	;# 
   957  0002                     	;# 
   958  0003                     	;# 
   959  0004                     	;# 
   960  0005                     	;# 
   961  0006                     	;# 
   962  0007                     	;# 
   963  0008                     	;# 
   964  0009                     	;# 
   965  000A                     	;# 
   966  000B                     	;# 
   967  000C                     	;# 
   968  000E                     	;# 
   969  0011                     	;# 
   970  0012                     	;# 
   971  0013                     	;# 
   972  0015                     	;# 
   973  0016                     	;# 
   974  0016                     	;# 
   975  0017                     	;# 
   976  0018                     	;# 
   977  0019                     	;# 
   978  001A                     	;# 
   979  001B                     	;# 
   980  001C                     	;# 
   981  008C                     	;# 
   982  008E                     	;# 
   983  0091                     	;# 
   984  0092                     	;# 
   985  0093                     	;# 
   986  0095                     	;# 
   987  0096                     	;# 
   988  0097                     	;# 
   989  0098                     	;# 
   990  0099                     	;# 
   991  009A                     	;# 
   992  009B                     	;# 
   993  009B                     	;# 
   994  009C                     	;# 
   995  009D                     	;# 
   996  009E                     	;# 
   997  009F                     	;# 
   998  010C                     	;# 
   999  010E                     	;# 
  1000  0111                     	;# 
  1001  0112                     	;# 
  1002  0113                     	;# 
  1003  0114                     	;# 
  1004  0115                     	;# 
  1005  0116                     	;# 
  1006  0117                     	;# 
  1007  0118                     	;# 
  1008  0119                     	;# 
  1009  011C                     	;# 
  1010  018C                     	;# 
  1011  018E                     	;# 
  1012  0191                     	;# 
  1013  0191                     	;# 
  1014  0192                     	;# 
  1015  0193                     	;# 
  1016  0193                     	;# 
  1017  0194                     	;# 
  1018  0195                     	;# 
  1019  0196                     	;# 
  1020  0197                     	;# 
  1021  0199                     	;# 
  1022  0199                     	;# 
  1023  0199                     	;# 
  1024  019A                     	;# 
  1025  019A                     	;# 
  1026  019A                     	;# 
  1027  019B                     	;# 
  1028  019B                     	;# 
  1029  019B                     	;# 
  1030  019B                     	;# 
  1031  019B                     	;# 
  1032  019C                     	;# 
  1033  019C                     	;# 
  1034  019C                     	;# 
  1035  019D                     	;# 
  1036  019D                     	;# 
  1037  019D                     	;# 
  1038  019E                     	;# 
  1039  019E                     	;# 
  1040  019E                     	;# 
  1041  019F                     	;# 
  1042  019F                     	;# 
  1043  019F                     	;# 
  1044  019F                     	;# 
  1045  019F                     	;# 
  1046  020C                     	;# 
  1047  020E                     	;# 
  1048  0211                     	;# 
  1049  0211                     	;# 
  1050  0212                     	;# 
  1051  0212                     	;# 
  1052  0213                     	;# 
  1053  0213                     	;# 
  1054  0214                     	;# 
  1055  0214                     	;# 
  1056  0215                     	;# 
  1057  0215                     	;# 
  1058  0215                     	;# 
  1059  0215                     	;# 
  1060  0216                     	;# 
  1061  0216                     	;# 
  1062  0217                     	;# 
  1063  0217                     	;# 
  1064  028C                     	;# 
  1065  028E                     	;# 
  1066  0291                     	;# 
  1067  0291                     	;# 
  1068  0292                     	;# 
  1069  0293                     	;# 
  1070  0293                     	;# 
  1071  0298                     	;# 
  1072  0298                     	;# 
  1073  0299                     	;# 
  1074  029A                     	;# 
  1075  029A                     	;# 
  1076  029E                     	;# 
  1077  030C                     	;# 
  1078  030E                     	;# 
  1079  038C                     	;# 
  1080  038E                     	;# 
  1081  0391                     	;# 
  1082  0392                     	;# 
  1083  0393                     	;# 
  1084  0397                     	;# 
  1085  0398                     	;# 
  1086  0399                     	;# 
  1087  0415                     	;# 
  1088  0416                     	;# 
  1089  0417                     	;# 
  1090  041C                     	;# 
  1091  041D                     	;# 
  1092  041E                     	;# 
  1093  0511                     	;# 
  1094  0515                     	;# 
  1095  0617                     	;# 
  1096  0618                     	;# 
  1097  0619                     	;# 
  1098  0619                     	;# 
  1099  061A                     	;# 
  1100  061B                     	;# 
  1101  061C                     	;# 
  1102  061C                     	;# 
  1103  0691                     	;# 
  1104  0692                     	;# 
  1105  0693                     	;# 
  1106  0694                     	;# 
  1107  0695                     	;# 
  1108  0696                     	;# 
  1109  0697                     	;# 
  1110  0698                     	;# 
  1111  0699                     	;# 
  1112  069A                     	;# 
  1113  069B                     	;# 
  1114  069C                     	;# 
  1115  069D                     	;# 
  1116  069E                     	;# 
  1117  069F                     	;# 
  1118  0E0F                     	;# 
  1119  0E10                     	;# 
  1120  0E11                     	;# 
  1121  0E12                     	;# 
  1122  0E13                     	;# 
  1123  0E14                     	;# 
  1124  0E15                     	;# 
  1125  0E17                     	;# 
  1126  0E20                     	;# 
  1127  0E21                     	;# 
  1128  0E22                     	;# 
  1129  0E24                     	;# 
  1130  0E25                     	;# 
  1131  0E28                     	;# 
  1132  0E29                     	;# 
  1133  0E2A                     	;# 
  1134  0E2B                     	;# 
  1135  0E90                     	;# 
  1136  0E91                     	;# 
  1137  0E92                     	;# 
  1138  0E94                     	;# 
  1139  0E95                     	;# 
  1140  0EA0                     	;# 
  1141  0EA1                     	;# 
  1142  0EA2                     	;# 
  1143  0EA3                     	;# 
  1144  0EA4                     	;# 
  1145  0EA5                     	;# 
  1146  0F0F                     	;# 
  1147  0F10                     	;# 
  1148  0F11                     	;# 
  1149  0F12                     	;# 
  1150  0F13                     	;# 
  1151  0F14                     	;# 
  1152  0F15                     	;# 
  1153  0F16                     	;# 
  1154  0F17                     	;# 
  1155  0F18                     	;# 
  1156  0F19                     	;# 
  1157  0F1A                     	;# 
  1158  0F1B                     	;# 
  1159  0F1C                     	;# 
  1160  0F1D                     	;# 
  1161  0F1E                     	;# 
  1162  0F1F                     	;# 
  1163  0F20                     	;# 
  1164  0F21                     	;# 
  1165  0F22                     	;# 
  1166  0F23                     	;# 
  1167  0F24                     	;# 
  1168  0F25                     	;# 
  1169  0F26                     	;# 
  1170  0F27                     	;# 
  1171  0F28                     	;# 
  1172  0F29                     	;# 
  1173  0F2A                     	;# 
  1174  0F2B                     	;# 
  1175  0F2C                     	;# 
  1176  0F2D                     	;# 
  1177  0FE4                     	;# 
  1178  0FE5                     	;# 
  1179  0FE6                     	;# 
  1180  0FE7                     	;# 
  1181  0FE8                     	;# 
  1182  0FE9                     	;# 
  1183  0FEA                     	;# 
  1184  0FEB                     	;# 
  1185  0FED                     	;# 
  1186  0FEE                     	;# 
  1187  0FEF                     	;# 
  1188  0011                     _PIR1bits	set	17
  1189  001B                     _PR2	set	27
  1190  001C                     _T2CON	set	28
  1191  001C                     _T2CONbits	set	28
  1192  001A                     _TMR2	set	26
  1193  005F                     _GIE	set	95
  1194  0095                     _OPTION_REGbits	set	149
  1195  0099                     _OSCCON	set	153
  1196  009A                     _OSCSTAT	set	154
  1197  0098                     _OSCTUNE	set	152
  1198  008C                     _TRISA	set	140
  1199  008E                     _TRISC	set	142
  1200  04D6                     _PLLR	set	1238
  1201  010C                     _LATA	set	268
  1202  010E                     _LATC	set	270
  1203  0861                     _LATA1	set	2145
  1204  018C                     _ANSELA	set	396
  1205  018E                     _ANSELC	set	398
  1206  020C                     _WPUA	set	524
  1207  020E                     _WPUC	set	526
  1208  029E                     _CCPTMRSbits	set	670
  1209  0619                     _PWM3CON	set	1561
  1210  0618                     _PWM3DCH	set	1560
  1211  0617                     _PWM3DCL	set	1559
  1212  0E0F                     _PPSLOCK	set	3599
  1213  0E92                     _RA2PPSbits	set	3730
  1214                           
  1215                           	psect	text0
  1216  0000                     __ptext0:	
  1217                           ; #config settings
  1218                           
  1219                           
  1220                           ;psect for function _Delay
  1221  0000                     
  1222                           	psect	cinit
  1223  07FC                     start_initialization:	
  1224  07FC                     __initialization:	
  1225  07FC                     end_of_initialization:	
  1226                           ;End of C runtime variable initialization code
  1227                           
  1228  07FC                     __end_of__initialization:	
  1229  07FC  107E               	bcf	pic14e$flags,0	;clear compiler interrupt flag
  1230  07FD  0020               	movlb	0
  1231  07FE  3186  2E23         	ljmp	_main	;jump to C main() function
  1232                           
  1233                           	psect	cstackCOMMON
  1234  0070                     __pcstackCOMMON:	
  1235  0070                     ?_TMR2_StartTimer:	
  1236  0070                     ??_TMR2_StartTimer:	
  1237                           ; 0 bytes @ 0x0
  1238                           
  1239  0070                     ?_OSCILLATOR_Initialize:	
  1240                           ; 0 bytes @ 0x0
  1241                           
  1242  0070                     ??_OSCILLATOR_Initialize:	
  1243                           ; 0 bytes @ 0x0
  1244                           
  1245  0070                     ?_Delay:	
  1246                           ; 0 bytes @ 0x0
  1247                           
  1248  0070                     ?_PWM3_Initialize:	
  1249                           ; 0 bytes @ 0x0
  1250                           
  1251  0070                     ??_PWM3_Initialize:	
  1252                           ; 0 bytes @ 0x0
  1253                           
  1254  0070                     ?_TMR2_Initialize:	
  1255                           ; 0 bytes @ 0x0
  1256                           
  1257  0070                     ??_TMR2_Initialize:	
  1258                           ; 0 bytes @ 0x0
  1259                           
  1260  0070                     ?_TMR2_WriteTimer:	
  1261                           ; 0 bytes @ 0x0
  1262                           
  1263  0070                     ??_TMR2_WriteTimer:	
  1264                           ; 0 bytes @ 0x0
  1265                           
  1266  0070                     ?_TMR2_LoadPeriodRegister:	
  1267                           ; 0 bytes @ 0x0
  1268                           
  1269  0070                     ??_TMR2_LoadPeriodRegister:	
  1270                           ; 0 bytes @ 0x0
  1271                           
  1272  0070                     ?_PIN_MANAGER_Initialize:	
  1273                           ; 0 bytes @ 0x0
  1274                           
  1275  0070                     ??_PIN_MANAGER_Initialize:	
  1276                           ; 0 bytes @ 0x0
  1277                           
  1278  0070                     ?_SYSTEM_Initialize:	
  1279                           ; 0 bytes @ 0x0
  1280                           
  1281  0070                     ?_main:	
  1282                           ; 0 bytes @ 0x0
  1283                           
  1284  0070                     ?___ftpack:	
  1285                           ; 0 bytes @ 0x0
  1286                           
  1287  0070                     TMR2_WriteTimer@timerVal:	
  1288                           ; 3 bytes @ 0x0
  1289                           
  1290  0070                     TMR2_LoadPeriodRegister@periodVal:	
  1291                           ; 1 bytes @ 0x0
  1292                           
  1293  0070                     PIN_MANAGER_Initialize@state:	
  1294                           ; 1 bytes @ 0x0
  1295                           
  1296  0070                     Delay@delayVal:	
  1297                           ; 1 bytes @ 0x0
  1298                           
  1299  0070                     ___ftpack@arg:	
  1300                           ; 2 bytes @ 0x0
  1301                           
  1302                           
  1303                           ; 3 bytes @ 0x0
  1304  0070                     	ds	1
  1305  0071                     ??_SYSTEM_Initialize:	
  1306                           
  1307                           ; 0 bytes @ 0x1
  1308  0071                     	ds	1
  1309  0072                     ??_Delay:	
  1310  0072                     Delay@millisec:	
  1311                           ; 0 bytes @ 0x2
  1312                           
  1313                           
  1314                           ; 2 bytes @ 0x2
  1315  0072                     	ds	1
  1316  0073                     ___ftpack@exp:	
  1317                           
  1318                           ; 1 bytes @ 0x3
  1319  0073                     	ds	1
  1320  0074                     ___ftpack@sign:	
  1321                           
  1322                           ; 1 bytes @ 0x4
  1323  0074                     	ds	1
  1324  0075                     ??___ftpack:	
  1325                           
  1326                           ; 0 bytes @ 0x5
  1327  0075                     	ds	3
  1328  0078                     ?___lbtoft:	
  1329                           
  1330                           ; 3 bytes @ 0x8
  1331  0078                     	ds	3
  1332  007B                     ___lbtoft@c:	
  1333                           
  1334                           ; 1 bytes @ 0xB
  1335  007B                     	ds	1
  1336  007C                     ??_main:	
  1337                           
  1338                           ; 0 bytes @ 0xC
  1339  007C                     	ds	1
  1340                           
  1341                           	psect	cstackBANK0
  1342  0020                     __pcstackBANK0:	
  1343  0020                     ??___lbtoft:	
  1344                           
  1345                           ; 0 bytes @ 0x0
  1346  0020                     	ds	4
  1347  0024                     ?___ftdiv:	
  1348  0024                     ___ftdiv@f2:	
  1349                           ; 3 bytes @ 0x4
  1350                           
  1351                           
  1352                           ; 3 bytes @ 0x4
  1353  0024                     	ds	3
  1354  0027                     ___ftdiv@f1:	
  1355                           
  1356                           ; 3 bytes @ 0x7
  1357  0027                     	ds	3
  1358  002A                     ??___ftdiv:	
  1359                           
  1360                           ; 0 bytes @ 0xA
  1361  002A                     	ds	4
  1362  002E                     ___ftdiv@cntr:	
  1363                           
  1364                           ; 1 bytes @ 0xE
  1365  002E                     	ds	1
  1366  002F                     ___ftdiv@f3:	
  1367                           
  1368                           ; 3 bytes @ 0xF
  1369  002F                     	ds	3
  1370  0032                     ___ftdiv@exp:	
  1371                           
  1372                           ; 1 bytes @ 0x12
  1373  0032                     	ds	1
  1374  0033                     ___ftdiv@sign:	
  1375                           
  1376                           ; 1 bytes @ 0x13
  1377  0033                     	ds	1
  1378  0034                     ?___fttol:	
  1379  0034                     ___fttol@f1:	
  1380                           ; 4 bytes @ 0x14
  1381                           
  1382                           
  1383                           ; 3 bytes @ 0x14
  1384  0034                     	ds	4
  1385  0038                     ??___fttol:	
  1386                           
  1387                           ; 0 bytes @ 0x18
  1388  0038                     	ds	4
  1389  003C                     ___fttol@sign1:	
  1390                           
  1391                           ; 1 bytes @ 0x1C
  1392  003C                     	ds	1
  1393  003D                     ___fttol@lval:	
  1394                           
  1395                           ; 4 bytes @ 0x1D
  1396  003D                     	ds	4
  1397  0041                     ___fttol@exp1:	
  1398                           
  1399                           ; 1 bytes @ 0x21
  1400  0041                     	ds	1
  1401  0042                     main@DutyCycle:	
  1402                           
  1403                           ; 1 bytes @ 0x22
  1404  0042                     	ds	1
  1405  0043                     main@TimerValue:	
  1406                           
  1407                           ; 1 bytes @ 0x23
  1408  0043                     	ds	1
  1409                           
  1410                           	psect	maintext
  1411  0623                     __pmaintext:	
  1412 ;;
  1413 ;;Main: autosize = 0, tempsize = 1, incstack = 0, save=0
  1414 ;;
  1415 ;; *************** function _main *****************
  1416 ;; Defined at:
  1417 ;;		line 54 in file "main.c"
  1418 ;; Parameters:    Size  Location     Type
  1419 ;;		None
  1420 ;; Auto vars:     Size  Location     Type
  1421 ;;  TimerValue      1   35[BANK0 ] unsigned char 
  1422 ;;  DutyCycle       1   34[BANK0 ] unsigned char 
  1423 ;; Return value:  Size  Location     Type
  1424 ;;		None               void
  1425 ;; Registers used:
  1426 ;;		wreg, status,2, status,0, pclath, cstack
  1427 ;; Tracked objects:
  1428 ;;		On entry : 17F/0
  1429 ;;		On exit  : 0/0
  1430 ;;		Unchanged: 0/0
  1431 ;; Data sizes:     COMMON   BANK0   BANK1   BANK2   BANK3   BANK4   BANK5   BANK6
  1432 ;;      Params:         0       0       0       0       0       0       0       0
  1433 ;;      Locals:         0       2       0       0       0       0       0       0
  1434 ;;      Temps:          1       0       0       0       0       0       0       0
  1435 ;;      Totals:         1       2       0       0       0       0       0       0
  1436 ;;Total ram usage:        3 bytes
  1437 ;; Hardware stack levels required when called:    3
  1438 ;; This function calls:
  1439 ;;		_Delay
  1440 ;;		_SYSTEM_Initialize
  1441 ;;		_TMR2_LoadPeriodRegister
  1442 ;;		_TMR2_WriteTimer
  1443 ;;		___ftdiv
  1444 ;;		___fttol
  1445 ;;		___lbtoft
  1446 ;; This function is called by:
  1447 ;;		Startup code after reset
  1448 ;; This function uses a non-reentrant model
  1449 ;;
  1450                           
  1451                           
  1452                           ;psect for function _main
  1453  0623                     _main:	
  1454                           
  1455                           ;main.c: 57: SYSTEM_Initialize();
  1456                           
  1457                           ;incstack = 0
  1458                           ; Regs used in _main: [wreg+status,2+status,0+pclath+cstack]
  1459  0623  3185  25AC  3186   	fcall	_SYSTEM_Initialize
  1460                           
  1461                           ;main.c: 73: uint8_t TimerValue =10;
  1462  0626  300A               	movlw	10
  1463  0627  00FC               	movwf	??_main
  1464  0628  087C               	movf	??_main,w
  1465  0629  0020               	movlb	0	; select bank0
  1466  062A  00C3               	movwf	main@TimerValue
  1467                           
  1468                           ;main.c: 74: uint8_t DutyCycle = (float)TimerValue/(float)2;
  1469  062B  0843               	movf	main@TimerValue,w
  1470  062C  3185  25B8  3186   	fcall	___lbtoft
  1471  062F  0878               	movf	?___lbtoft,w
  1472  0630  0020               	movlb	0	; select bank0
  1473  0631  00A7               	movwf	___ftdiv@f1
  1474  0632  0879               	movf	?___lbtoft+1,w
  1475  0633  00A8               	movwf	___ftdiv@f1+1
  1476  0634  087A               	movf	?___lbtoft+2,w
  1477  0635  00A9               	movwf	___ftdiv@f1+2
  1478  0636  3000               	movlw	0
  1479  0637  00A4               	movwf	___ftdiv@f2
  1480  0638  3000               	movlw	0
  1481  0639  00A5               	movwf	___ftdiv@f2+1
  1482  063A  3040               	movlw	64
  1483  063B  00A6               	movwf	___ftdiv@f2+2
  1484  063C  3187  2753  3186   	fcall	___ftdiv
  1485  063F  0020               	movlb	0	; select bank0
  1486  0640  0824               	movf	?___ftdiv,w
  1487  0641  00B4               	movwf	___fttol@f1
  1488  0642  0825               	movf	?___ftdiv+1,w
  1489  0643  00B5               	movwf	___fttol@f1+1
  1490  0644  0826               	movf	?___ftdiv+2,w
  1491  0645  00B6               	movwf	___fttol@f1+2
  1492  0646  3186  26CC  3186   	fcall	___fttol
  1493  0649  0020               	movlb	0	; select bank0
  1494  064A  0834               	movf	?___fttol,w
  1495  064B  00FC               	movwf	??_main
  1496  064C  087C               	movf	??_main,w
  1497  064D  00C2               	movwf	main@DutyCycle
  1498  064E                     l112:	
  1499                           ;main.c: 76: while (1)
  1500                           
  1501                           
  1502                           ;main.c: 77: {
  1503                           ;main.c: 81: for(TimerValue=250;TimerValue>=130;TimerValue--)
  1504  064E  30FA               	movlw	250
  1505  064F  00FC               	movwf	??_main
  1506  0650  087C               	movf	??_main,w
  1507  0651  00C3               	movwf	main@TimerValue
  1508  0652                     L1:	
  1509  0652  3082               	movlw	130
  1510  0653  0243               	subwf	main@TimerValue,w
  1511  0654  1C03               	btfss	3,0
  1512  0655  2E4E               	goto	l112
  1513                           
  1514                           ;main.c: 82: {
  1515                           ;main.c: 84: TMR2_LoadPeriodRegister(TimerValue);
  1516  0656  0843               	movf	main@TimerValue,w
  1517  0657  3185  2586  3186   	fcall	_TMR2_LoadPeriodRegister
  1518                           
  1519                           ;main.c: 85: TMR2_WriteTimer(0);
  1520  065A  3000               	movlw	0
  1521  065B  3185  258B  3186   	fcall	_TMR2_WriteTimer
  1522                           
  1523                           ;main.c: 88: Delay(100);
  1524  065E  3064               	movlw	100
  1525  065F  00F0               	movwf	Delay@delayVal
  1526  0660  3000               	movlw	0
  1527  0661  00F1               	movwf	Delay@delayVal+1
  1528  0662  3185  25D2  3186   	fcall	_Delay
  1529                           
  1530                           ;main.c: 89: do { LATA1 = ~LATA1; } while(0);
  1531  0665  3002               	movlw	2
  1532  0666  0022               	movlb	2	; select bank2
  1533  0667  068C               	xorwf	12,f
  1534  0668  3001               	movlw	1
  1535  0669  0020               	movlb	0	; select bank0
  1536  066A  02C3               	subwf	main@TimerValue,f
  1537  066B  2E52               	goto	L1
  1538  066C                     __end_of_main:	
  1539                           
  1540                           	psect	text1
  1541  05B8                     __ptext1:	
  1542 ;; *************** function ___lbtoft *****************
  1543 ;; Defined at:
  1544 ;;		line 27 in file "C:\Program Files (x86)\Microchip\xc8\v1.33\sources\common\lbtoft.c"
  1545 ;; Parameters:    Size  Location     Type
  1546 ;;  c               1    wreg     unsigned char 
  1547 ;; Auto vars:     Size  Location     Type
  1548 ;;  c               1   11[COMMON] unsigned char 
  1549 ;; Return value:  Size  Location     Type
  1550 ;;                  3    8[COMMON] float 
  1551 ;; Registers used:
  1552 ;;		wreg, status,2, status,0, pclath, cstack
  1553 ;; Tracked objects:
  1554 ;;		On entry : 0/0
  1555 ;;		On exit  : 0/0
  1556 ;;		Unchanged: 0/0
  1557 ;; Data sizes:     COMMON   BANK0   BANK1   BANK2   BANK3   BANK4   BANK5   BANK6
  1558 ;;      Params:         3       0       0       0       0       0       0       0
  1559 ;;      Locals:         1       0       0       0       0       0       0       0
  1560 ;;      Temps:          0       4       0       0       0       0       0       0
  1561 ;;      Totals:         4       4       0       0       0       0       0       0
  1562 ;;Total ram usage:        8 bytes
  1563 ;; Hardware stack levels used:    1
  1564 ;; Hardware stack levels required when called:    1
  1565 ;; This function calls:
  1566 ;;		___ftpack
  1567 ;; This function is called by:
  1568 ;;		_main
  1569 ;; This function uses a non-reentrant model
  1570 ;;
  1571                           
  1572                           
  1573                           ;psect for function ___lbtoft
  1574  05B8                     ___lbtoft:	
  1575                           
  1576                           ;incstack = 0
  1577                           ; Regs used in ___lbtoft: [wreg+status,2+status,0+pclath+cstack]
  1578                           ;___lbtoft@c stored from wreg
  1579  05B8  00FB               	movwf	___lbtoft@c
  1580  05B9  087B               	movf	___lbtoft@c,w
  1581  05BA  0020               	movlb	0	; select bank0
  1582  05BB  00A0               	movwf	??___lbtoft
  1583  05BC  01A1               	clrf	??___lbtoft+1
  1584  05BD  01A2               	clrf	??___lbtoft+2
  1585  05BE  0820               	movf	??___lbtoft,w
  1586  05BF  00F0               	movwf	___ftpack@arg
  1587  05C0  0821               	movf	??___lbtoft+1,w
  1588  05C1  00F1               	movwf	___ftpack@arg+1
  1589  05C2  0822               	movf	??___lbtoft+2,w
  1590  05C3  00F2               	movwf	___ftpack@arg+2
  1591  05C4  308E               	movlw	142
  1592  05C5  00A3               	movwf	??___lbtoft+3
  1593  05C6  0823               	movf	??___lbtoft+3,w
  1594  05C7  00F3               	movwf	___ftpack@exp
  1595  05C8  01F4               	clrf	___ftpack@sign
  1596  05C9  3186  266C         	fcall	___ftpack
  1597  05CB  0870               	movf	?___ftpack,w
  1598  05CC  00F8               	movwf	?___lbtoft
  1599  05CD  0871               	movf	?___ftpack+1,w
  1600  05CE  00F9               	movwf	?___lbtoft+1
  1601  05CF  0872               	movf	?___ftpack+2,w
  1602  05D0  00FA               	movwf	?___lbtoft+2
  1603  05D1  0008               	return
  1604  05D2                     __end_of___lbtoft:	
  1605                           
  1606                           	psect	text2
  1607  06CC                     __ptext2:	
  1608 ;; *************** function ___fttol *****************
  1609 ;; Defined at:
  1610 ;;		line 44 in file "C:\Program Files (x86)\Microchip\xc8\v1.33\sources\common\fttol.c"
  1611 ;; Parameters:    Size  Location     Type
  1612 ;;  f1              3   20[BANK0 ] float 
  1613 ;; Auto vars:     Size  Location     Type
  1614 ;;  lval            4   29[BANK0 ] unsigned long 
  1615 ;;  exp1            1   33[BANK0 ] unsigned char 
  1616 ;;  sign1           1   28[BANK0 ] unsigned char 
  1617 ;; Return value:  Size  Location     Type
  1618 ;;                  4   20[BANK0 ] long 
  1619 ;; Registers used:
  1620 ;;		wreg, status,2, status,0
  1621 ;; Tracked objects:
  1622 ;;		On entry : 0/0
  1623 ;;		On exit  : 0/0
  1624 ;;		Unchanged: 0/0
  1625 ;; Data sizes:     COMMON   BANK0   BANK1   BANK2   BANK3   BANK4   BANK5   BANK6
  1626 ;;      Params:         0       4       0       0       0       0       0       0
  1627 ;;      Locals:         0       6       0       0       0       0       0       0
  1628 ;;      Temps:          0       4       0       0       0       0       0       0
  1629 ;;      Totals:         0      14       0       0       0       0       0       0
  1630 ;;Total ram usage:       14 bytes
  1631 ;; Hardware stack levels used:    1
  1632 ;; This function calls:
  1633 ;;		Nothing
  1634 ;; This function is called by:
  1635 ;;		_main
  1636 ;; This function uses a non-reentrant model
  1637 ;;
  1638                           
  1639                           
  1640                           ;psect for function ___fttol
  1641  06CC                     ___fttol:	
  1642                           
  1643                           ;incstack = 0
  1644                           ; Regs used in ___fttol: [wreg+status,2+status,0]
  1645  06CC  0020               	movlb	0	; select bank0
  1646  06CD  0834               	movf	___fttol@f1,w
  1647  06CE  00B8               	movwf	??___fttol
  1648  06CF  0835               	movf	___fttol@f1+1,w
  1649  06D0  00B9               	movwf	??___fttol+1
  1650  06D1  0836               	movf	___fttol@f1+2,w
  1651  06D2  00BA               	movwf	??___fttol+2
  1652  06D3  1003               	clrc
  1653  06D4  0D39               	rlf	??___fttol+1,w
  1654  06D5  0D3A               	rlf	??___fttol+2,w
  1655  06D6  00BB               	movwf	??___fttol+3
  1656  06D7  083B               	movf	??___fttol+3,w
  1657  06D8  00C1               	movwf	___fttol@exp1
  1658  06D9  08C1               	movf	___fttol@exp1,f
  1659  06DA  1D03               	skipz
  1660  06DB  2EE5               	goto	l862
  1661  06DC  3000               	movlw	0
  1662  06DD  00B7               	movwf	?___fttol+3
  1663  06DE  3000               	movlw	0
  1664  06DF  00B6               	movwf	?___fttol+2
  1665  06E0  3000               	movlw	0
  1666  06E1  00B5               	movwf	?___fttol+1
  1667  06E2  3000               	movlw	0
  1668  06E3  00B4               	movwf	?___fttol
  1669  06E4  0008               	return
  1670  06E5                     l862:	
  1671  06E5  0834               	movf	___fttol@f1,w
  1672  06E6  00B8               	movwf	??___fttol
  1673  06E7  0835               	movf	___fttol@f1+1,w
  1674  06E8  00B9               	movwf	??___fttol+1
  1675  06E9  0836               	movf	___fttol@f1+2,w
  1676  06EA  00BA               	movwf	??___fttol+2
  1677  06EB  3017               	movlw	23
  1678  06EC                     u655:	
  1679  06EC  36BA               	lsrf	??___fttol+2,f
  1680  06ED  0CB9               	rrf	??___fttol+1,f
  1681  06EE  0CB8               	rrf	??___fttol,f
  1682  06EF  0B89               	decfsz	9,f
  1683  06F0  2EEC               	goto	u655
  1684  06F1  0838               	movf	??___fttol,w
  1685  06F2  00BB               	movwf	??___fttol+3
  1686  06F3  083B               	movf	??___fttol+3,w
  1687  06F4  00BC               	movwf	___fttol@sign1
  1688  06F5  17B5               	bsf	___fttol@f1+1,7
  1689  06F6  30FF               	movlw	255
  1690  06F7  05B4               	andwf	___fttol@f1,f
  1691  06F8  30FF               	movlw	255
  1692  06F9  05B5               	andwf	___fttol@f1+1,f
  1693  06FA  3000               	movlw	0
  1694  06FB  05B6               	andwf	___fttol@f1+2,f
  1695  06FC  0834               	movf	___fttol@f1,w
  1696  06FD  00BD               	movwf	___fttol@lval
  1697  06FE  0835               	movf	___fttol@f1+1,w
  1698  06FF  00BE               	movwf	___fttol@lval+1
  1699  0700  0836               	movf	___fttol@f1+2,w
  1700  0701  00BF               	movwf	___fttol@lval+2
  1701  0702  01C0               	clrf	___fttol@lval+3
  1702  0703  308E               	movlw	142
  1703  0704  02C1               	subwf	___fttol@exp1,f
  1704  0705  1FC1               	btfss	___fttol@exp1,7
  1705  0706  2F23               	goto	l882
  1706  0707  0841               	movf	___fttol@exp1,w
  1707  0708  3A80               	xorlw	128
  1708  0709  3E8F               	addlw	143
  1709  070A  1803               	skipnc
  1710  070B  2F15               	goto	l880
  1711  070C  3000               	movlw	0
  1712  070D  00B7               	movwf	?___fttol+3
  1713  070E  3000               	movlw	0
  1714  070F  00B6               	movwf	?___fttol+2
  1715  0710  3000               	movlw	0
  1716  0711  00B5               	movwf	?___fttol+1
  1717  0712  3000               	movlw	0
  1718  0713  00B4               	movwf	?___fttol
  1719  0714  0008               	return
  1720  0715                     l880:	
  1721  0715  3001               	movlw	1
  1722  0716                     u685:	
  1723  0716  36C0               	lsrf	___fttol@lval+3,f
  1724  0717  0CBF               	rrf	___fttol@lval+2,f
  1725  0718  0CBE               	rrf	___fttol@lval+1,f
  1726  0719  0CBD               	rrf	___fttol@lval,f
  1727  071A  0B89               	decfsz	9,f
  1728  071B  2F16               	goto	u685
  1729  071C  3001               	movlw	1
  1730  071D  00B8               	movwf	??___fttol
  1731  071E  0838               	movf	??___fttol,w
  1732  071F  07C1               	addwf	___fttol@exp1,f
  1733  0720  1903               	btfsc	3,2
  1734  0721  2F3C               	goto	l892
  1735  0722  2F15               	goto	l880
  1736  0723                     l882:	
  1737  0723  3018               	movlw	24
  1738  0724  0241               	subwf	___fttol@exp1,w
  1739  0725  1C03               	skipc
  1740  0726  2F39               	goto	l890
  1741  0727  3000               	movlw	0
  1742  0728  00B7               	movwf	?___fttol+3
  1743  0729  3000               	movlw	0
  1744  072A  00B6               	movwf	?___fttol+2
  1745  072B  3000               	movlw	0
  1746  072C  00B5               	movwf	?___fttol+1
  1747  072D  3000               	movlw	0
  1748  072E  00B4               	movwf	?___fttol
  1749  072F  0008               	return
  1750  0730                     l888:	
  1751  0730  3001               	movlw	1
  1752  0731                     u715:	
  1753  0731  35BD               	lslf	___fttol@lval,f
  1754  0732  0DBE               	rlf	___fttol@lval+1,f
  1755  0733  0DBF               	rlf	___fttol@lval+2,f
  1756  0734  0DC0               	rlf	___fttol@lval+3,f
  1757  0735  0B89               	decfsz	9,f
  1758  0736  2F31               	goto	u715
  1759  0737  3001               	movlw	1
  1760  0738  02C1               	subwf	___fttol@exp1,f
  1761  0739                     l890:	
  1762  0739  08C1               	movf	___fttol@exp1,f
  1763  073A  1D03               	skipz
  1764  073B  2F30               	goto	l888
  1765  073C                     l892:	
  1766  073C  083C               	movf	___fttol@sign1,w
  1767  073D  1903               	btfsc	3,2
  1768  073E  2F4A               	goto	l896
  1769  073F  09BD               	comf	___fttol@lval,f
  1770  0740  09BE               	comf	___fttol@lval+1,f
  1771  0741  09BF               	comf	___fttol@lval+2,f
  1772  0742  09C0               	comf	___fttol@lval+3,f
  1773  0743  0ABD               	incf	___fttol@lval,f
  1774  0744  1903               	skipnz
  1775  0745  0ABE               	incf	___fttol@lval+1,f
  1776  0746  1903               	skipnz
  1777  0747  0ABF               	incf	___fttol@lval+2,f
  1778  0748  1903               	skipnz
  1779  0749  0AC0               	incf	___fttol@lval+3,f
  1780  074A                     l896:	
  1781  074A  0840               	movf	___fttol@lval+3,w
  1782  074B  00B7               	movwf	?___fttol+3
  1783  074C  083F               	movf	___fttol@lval+2,w
  1784  074D  00B6               	movwf	?___fttol+2
  1785  074E  083E               	movf	___fttol@lval+1,w
  1786  074F  00B5               	movwf	?___fttol+1
  1787  0750  083D               	movf	___fttol@lval,w
  1788  0751  00B4               	movwf	?___fttol
  1789  0752  0008               	return
  1790  0753                     __end_of___fttol:	
  1791                           
  1792                           	psect	text3
  1793  0753                     __ptext3:	
  1794 ;; *************** function ___ftdiv *****************
  1795 ;; Defined at:
  1796 ;;		line 49 in file "C:\Program Files (x86)\Microchip\xc8\v1.33\sources\pic\ftdiv.c"
  1797 ;; Parameters:    Size  Location     Type
  1798 ;;  f2              3    4[BANK0 ] float 
  1799 ;;  f1              3    7[BANK0 ] float 
  1800 ;; Auto vars:     Size  Location     Type
  1801 ;;  f3              3   15[BANK0 ] float 
  1802 ;;  sign            1   19[BANK0 ] unsigned char 
  1803 ;;  exp             1   18[BANK0 ] unsigned char 
  1804 ;;  cntr            1   14[BANK0 ] unsigned char 
  1805 ;; Return value:  Size  Location     Type
  1806 ;;                  3    4[BANK0 ] float 
  1807 ;; Registers used:
  1808 ;;		wreg, status,2, status,0, pclath, cstack
  1809 ;; Tracked objects:
  1810 ;;		On entry : 0/0
  1811 ;;		On exit  : 0/0
  1812 ;;		Unchanged: 0/0
  1813 ;; Data sizes:     COMMON   BANK0   BANK1   BANK2   BANK3   BANK4   BANK5   BANK6
  1814 ;;      Params:         0       6       0       0       0       0       0       0
  1815 ;;      Locals:         0       6       0       0       0       0       0       0
  1816 ;;      Temps:          0       4       0       0       0       0       0       0
  1817 ;;      Totals:         0      16       0       0       0       0       0       0
  1818 ;;Total ram usage:       16 bytes
  1819 ;; Hardware stack levels used:    1
  1820 ;; Hardware stack levels required when called:    1
  1821 ;; This function calls:
  1822 ;;		___ftpack
  1823 ;; This function is called by:
  1824 ;;		_main
  1825 ;; This function uses a non-reentrant model
  1826 ;;
  1827                           
  1828                           
  1829                           ;psect for function ___ftdiv
  1830  0753                     ___ftdiv:	
  1831                           
  1832                           ;incstack = 0
  1833                           ; Regs used in ___ftdiv: [wreg+status,2+status,0+pclath+cstack]
  1834  0753  0020               	movlb	0	; select bank0
  1835  0754  0827               	movf	___ftdiv@f1,w
  1836  0755  00AA               	movwf	??___ftdiv
  1837  0756  0828               	movf	___ftdiv@f1+1,w
  1838  0757  00AB               	movwf	??___ftdiv+1
  1839  0758  0829               	movf	___ftdiv@f1+2,w
  1840  0759  00AC               	movwf	??___ftdiv+2
  1841  075A  1003               	clrc
  1842  075B  0D2B               	rlf	??___ftdiv+1,w
  1843  075C  0D2C               	rlf	??___ftdiv+2,w
  1844  075D  00AD               	movwf	??___ftdiv+3
  1845  075E  082D               	movf	??___ftdiv+3,w
  1846  075F  00B2               	movwf	___ftdiv@exp
  1847  0760  08B2               	movf	___ftdiv@exp,f
  1848  0761  1D03               	skipz
  1849  0762  2F6A               	goto	l820
  1850  0763  3000               	movlw	0
  1851  0764  00A4               	movwf	?___ftdiv
  1852  0765  3000               	movlw	0
  1853  0766  00A5               	movwf	?___ftdiv+1
  1854  0767  3000               	movlw	0
  1855  0768  00A6               	movwf	?___ftdiv+2
  1856  0769  0008               	return
  1857  076A                     l820:	
  1858  076A  0824               	movf	___ftdiv@f2,w
  1859  076B  00AA               	movwf	??___ftdiv
  1860  076C  0825               	movf	___ftdiv@f2+1,w
  1861  076D  00AB               	movwf	??___ftdiv+1
  1862  076E  0826               	movf	___ftdiv@f2+2,w
  1863  076F  00AC               	movwf	??___ftdiv+2
  1864  0770  1003               	clrc
  1865  0771  0D2B               	rlf	??___ftdiv+1,w
  1866  0772  0D2C               	rlf	??___ftdiv+2,w
  1867  0773  00AD               	movwf	??___ftdiv+3
  1868  0774  082D               	movf	??___ftdiv+3,w
  1869  0775  00B3               	movwf	___ftdiv@sign
  1870  0776  08B3               	movf	___ftdiv@sign,f
  1871  0777  1D03               	skipz
  1872  0778  2F80               	goto	l826
  1873  0779  3000               	movlw	0
  1874  077A  00A4               	movwf	?___ftdiv
  1875  077B  3000               	movlw	0
  1876  077C  00A5               	movwf	?___ftdiv+1
  1877  077D  3000               	movlw	0
  1878  077E  00A6               	movwf	?___ftdiv+2
  1879  077F  0008               	return
  1880  0780                     l826:	
  1881  0780  3000               	movlw	0
  1882  0781  00AF               	movwf	___ftdiv@f3
  1883  0782  3000               	movlw	0
  1884  0783  00B0               	movwf	___ftdiv@f3+1
  1885  0784  3000               	movlw	0
  1886  0785  00B1               	movwf	___ftdiv@f3+2
  1887  0786  3089               	movlw	137
  1888  0787  0733               	addwf	___ftdiv@sign,w
  1889  0788  00AA               	movwf	??___ftdiv
  1890  0789  082A               	movf	??___ftdiv,w
  1891  078A  02B2               	subwf	___ftdiv@exp,f
  1892  078B  0827               	movf	___ftdiv@f1,w
  1893  078C  00AA               	movwf	??___ftdiv
  1894  078D  0828               	movf	___ftdiv@f1+1,w
  1895  078E  00AB               	movwf	??___ftdiv+1
  1896  078F  0829               	movf	___ftdiv@f1+2,w
  1897  0790  00AC               	movwf	??___ftdiv+2
  1898  0791  3010               	movlw	16
  1899  0792                     u585:	
  1900  0792  36AC               	lsrf	??___ftdiv+2,f
  1901  0793  0CAB               	rrf	??___ftdiv+1,f
  1902  0794  0CAA               	rrf	??___ftdiv,f
  1903  0795  0B89               	decfsz	9,f
  1904  0796  2F92               	goto	u585
  1905  0797  082A               	movf	??___ftdiv,w
  1906  0798  00AD               	movwf	??___ftdiv+3
  1907  0799  082D               	movf	??___ftdiv+3,w
  1908  079A  00B3               	movwf	___ftdiv@sign
  1909  079B  0824               	movf	___ftdiv@f2,w
  1910  079C  00AA               	movwf	??___ftdiv
  1911  079D  0825               	movf	___ftdiv@f2+1,w
  1912  079E  00AB               	movwf	??___ftdiv+1
  1913  079F  0826               	movf	___ftdiv@f2+2,w
  1914  07A0  00AC               	movwf	??___ftdiv+2
  1915  07A1  3010               	movlw	16
  1916  07A2                     u595:	
  1917  07A2  36AC               	lsrf	??___ftdiv+2,f
  1918  07A3  0CAB               	rrf	??___ftdiv+1,f
  1919  07A4  0CAA               	rrf	??___ftdiv,f
  1920  07A5  0B89               	decfsz	9,f
  1921  07A6  2FA2               	goto	u595
  1922  07A7  082A               	movf	??___ftdiv,w
  1923  07A8  00AD               	movwf	??___ftdiv+3
  1924  07A9  082D               	movf	??___ftdiv+3,w
  1925  07AA  06B3               	xorwf	___ftdiv@sign,f
  1926  07AB  3080               	movlw	128
  1927  07AC  00AA               	movwf	??___ftdiv
  1928  07AD  082A               	movf	??___ftdiv,w
  1929  07AE  05B3               	andwf	___ftdiv@sign,f
  1930  07AF  17A8               	bsf	___ftdiv@f1+1,7
  1931  07B0  30FF               	movlw	255
  1932  07B1  05A7               	andwf	___ftdiv@f1,f
  1933  07B2  30FF               	movlw	255
  1934  07B3  05A8               	andwf	___ftdiv@f1+1,f
  1935  07B4  3000               	movlw	0
  1936  07B5  05A9               	andwf	___ftdiv@f1+2,f
  1937  07B6  17A5               	bsf	___ftdiv@f2+1,7
  1938  07B7  30FF               	movlw	255
  1939  07B8  05A4               	andwf	___ftdiv@f2,f
  1940  07B9  30FF               	movlw	255
  1941  07BA  05A5               	andwf	___ftdiv@f2+1,f
  1942  07BB  3000               	movlw	0
  1943  07BC  05A6               	andwf	___ftdiv@f2+2,f
  1944  07BD  3018               	movlw	24
  1945  07BE  00AA               	movwf	??___ftdiv
  1946  07BF  082A               	movf	??___ftdiv,w
  1947  07C0  00AE               	movwf	___ftdiv@cntr
  1948  07C1                     l840:	
  1949  07C1  3001               	movlw	1
  1950  07C2                     u605:	
  1951  07C2  35AF               	lslf	___ftdiv@f3,f
  1952  07C3  0DB0               	rlf	___ftdiv@f3+1,f
  1953  07C4  0DB1               	rlf	___ftdiv@f3+2,f
  1954  07C5  0B89               	decfsz	9,f
  1955  07C6  2FC2               	goto	u605
  1956  07C7  0826               	movf	___ftdiv@f2+2,w
  1957  07C8  0229               	subwf	___ftdiv@f1+2,w
  1958  07C9  1D03               	skipz
  1959  07CA  2FD1               	goto	u615
  1960  07CB  0825               	movf	___ftdiv@f2+1,w
  1961  07CC  0228               	subwf	___ftdiv@f1+1,w
  1962  07CD  1D03               	skipz
  1963  07CE  2FD1               	goto	u615
  1964  07CF  0824               	movf	___ftdiv@f2,w
  1965  07D0  0227               	subwf	___ftdiv@f1,w
  1966  07D1                     u615:	
  1967  07D1  1C03               	skipc
  1968  07D2  2FDA               	goto	l848
  1969  07D3  0824               	movf	___ftdiv@f2,w
  1970  07D4  02A7               	subwf	___ftdiv@f1,f
  1971  07D5  0825               	movf	___ftdiv@f2+1,w
  1972  07D6  3BA8               	subwfb	___ftdiv@f1+1,f
  1973  07D7  0826               	movf	___ftdiv@f2+2,w
  1974  07D8  3BA9               	subwfb	___ftdiv@f1+2,f
  1975  07D9  142F               	bsf	___ftdiv@f3,0
  1976  07DA                     l848:	
  1977  07DA  3001               	movlw	1
  1978  07DB                     u625:	
  1979  07DB  35A7               	lslf	___ftdiv@f1,f
  1980  07DC  0DA8               	rlf	___ftdiv@f1+1,f
  1981  07DD  0DA9               	rlf	___ftdiv@f1+2,f
  1982  07DE  0B89               	decfsz	9,f
  1983  07DF  2FDB               	goto	u625
  1984  07E0  3001               	movlw	1
  1985  07E1  02AE               	subwf	___ftdiv@cntr,f
  1986  07E2  1D03               	btfss	3,2
  1987  07E3  2FC1               	goto	l840
  1988  07E4  082F               	movf	___ftdiv@f3,w
  1989  07E5  00F0               	movwf	___ftpack@arg
  1990  07E6  0830               	movf	___ftdiv@f3+1,w
  1991  07E7  00F1               	movwf	___ftpack@arg+1
  1992  07E8  0831               	movf	___ftdiv@f3+2,w
  1993  07E9  00F2               	movwf	___ftpack@arg+2
  1994  07EA  0832               	movf	___ftdiv@exp,w
  1995  07EB  00AA               	movwf	??___ftdiv
  1996  07EC  082A               	movf	??___ftdiv,w
  1997  07ED  00F3               	movwf	___ftpack@exp
  1998  07EE  0833               	movf	___ftdiv@sign,w
  1999  07EF  00AB               	movwf	??___ftdiv+1
  2000  07F0  082B               	movf	??___ftdiv+1,w
  2001  07F1  00F4               	movwf	___ftpack@sign
  2002  07F2  3186  266C         	fcall	___ftpack
  2003  07F4  0870               	movf	?___ftpack,w
  2004  07F5  0020               	movlb	0	; select bank0
  2005  07F6  00A4               	movwf	?___ftdiv
  2006  07F7  0871               	movf	?___ftpack+1,w
  2007  07F8  00A5               	movwf	?___ftdiv+1
  2008  07F9  0872               	movf	?___ftpack+2,w
  2009  07FA  00A6               	movwf	?___ftdiv+2
  2010  07FB  0008               	return
  2011  07FC                     __end_of___ftdiv:	
  2012                           
  2013                           	psect	text4
  2014  066C                     __ptext4:	
  2015 ;; *************** function ___ftpack *****************
  2016 ;; Defined at:
  2017 ;;		line 62 in file "C:\Program Files (x86)\Microchip\xc8\v1.33\sources\common\float.c"
  2018 ;; Parameters:    Size  Location     Type
  2019 ;;  arg             3    0[COMMON] unsigned um
  2020 ;;  exp             1    3[COMMON] unsigned char 
  2021 ;;  sign            1    4[COMMON] unsigned char 
  2022 ;; Auto vars:     Size  Location     Type
  2023 ;;		None
  2024 ;; Return value:  Size  Location     Type
  2025 ;;                  3    0[COMMON] float 
  2026 ;; Registers used:
  2027 ;;		wreg, status,2, status,0
  2028 ;; Tracked objects:
  2029 ;;		On entry : 0/0
  2030 ;;		On exit  : 0/0
  2031 ;;		Unchanged: 0/0
  2032 ;; Data sizes:     COMMON   BANK0   BANK1   BANK2   BANK3   BANK4   BANK5   BANK6
  2033 ;;      Params:         5       0       0       0       0       0       0       0
  2034 ;;      Locals:         0       0       0       0       0       0       0       0
  2035 ;;      Temps:          3       0       0       0       0       0       0       0
  2036 ;;      Totals:         8       0       0       0       0       0       0       0
  2037 ;;Total ram usage:        8 bytes
  2038 ;; Hardware stack levels used:    1
  2039 ;; This function calls:
  2040 ;;		Nothing
  2041 ;; This function is called by:
  2042 ;;		___ftdiv
  2043 ;;		___lbtoft
  2044 ;; This function uses a non-reentrant model
  2045 ;;
  2046                           
  2047                           
  2048                           ;psect for function ___ftpack
  2049  066C                     ___ftpack:	
  2050                           
  2051                           ;incstack = 0
  2052                           ; Regs used in ___ftpack: [wreg+status,2+status,0]
  2053  066C  0873               	movf	___ftpack@exp,w
  2054  066D  1903               	btfsc	3,2
  2055  066E  2E74               	goto	l770
  2056  066F  0872               	movf	___ftpack@arg+2,w
  2057  0670  0471               	iorwf	___ftpack@arg+1,w
  2058  0671  0470               	iorwf	___ftpack@arg,w
  2059  0672  1D03               	skipz
  2060  0673  2E85               	goto	l776
  2061  0674                     l770:	
  2062  0674  3000               	movlw	0
  2063  0675  00F0               	movwf	?___ftpack
  2064  0676  3000               	movlw	0
  2065  0677  00F1               	movwf	?___ftpack+1
  2066  0678  3000               	movlw	0
  2067  0679  00F2               	movwf	?___ftpack+2
  2068  067A  0008               	return
  2069  067B                     l774:	
  2070  067B  3001               	movlw	1
  2071  067C  00F5               	movwf	??___ftpack
  2072  067D  0875               	movf	??___ftpack,w
  2073  067E  07F3               	addwf	___ftpack@exp,f
  2074  067F  3001               	movlw	1
  2075  0680                     u445:	
  2076  0680  36F2               	lsrf	___ftpack@arg+2,f
  2077  0681  0CF1               	rrf	___ftpack@arg+1,f
  2078  0682  0CF0               	rrf	___ftpack@arg,f
  2079  0683  0B89               	decfsz	9,f
  2080  0684  2E80               	goto	u445
  2081  0685                     l776:	
  2082  0685  30FE               	movlw	254
  2083  0686  0572               	andwf	___ftpack@arg+2,w
  2084  0687  1903               	btfsc	3,2
  2085  0688  2E9E               	goto	l292
  2086  0689  2E7B               	goto	l774
  2087  068A                     l778:	
  2088  068A  3001               	movlw	1
  2089  068B  00F5               	movwf	??___ftpack
  2090  068C  0875               	movf	??___ftpack,w
  2091  068D  07F3               	addwf	___ftpack@exp,f
  2092  068E  3001               	movlw	1
  2093  068F  07F0               	addwf	___ftpack@arg,f
  2094  0690  3000               	movlw	0
  2095  0691  1803               	skipnc
  2096  0692  3001               	movlw	1
  2097  0693  07F1               	addwf	___ftpack@arg+1,f
  2098  0694  3000               	movlw	0
  2099  0695  1803               	skipnc
  2100  0696  3001               	movlw	1
  2101  0697  07F2               	addwf	___ftpack@arg+2,f
  2102  0698  3001               	movlw	1
  2103  0699                     u465:	
  2104  0699  36F2               	lsrf	___ftpack@arg+2,f
  2105  069A  0CF1               	rrf	___ftpack@arg+1,f
  2106  069B  0CF0               	rrf	___ftpack@arg,f
  2107  069C  0B89               	decfsz	9,f
  2108  069D  2E99               	goto	u465
  2109  069E                     l292:	
  2110  069E  30FF               	movlw	255
  2111  069F  0572               	andwf	___ftpack@arg+2,w
  2112  06A0  1903               	btfsc	3,2
  2113  06A1  2EAB               	goto	l786
  2114  06A2  2E8A               	goto	l778
  2115  06A3                     l784:	
  2116  06A3  3001               	movlw	1
  2117  06A4  02F3               	subwf	___ftpack@exp,f
  2118  06A5  3001               	movlw	1
  2119  06A6                     u485:	
  2120  06A6  35F0               	lslf	___ftpack@arg,f
  2121  06A7  0DF1               	rlf	___ftpack@arg+1,f
  2122  06A8  0DF2               	rlf	___ftpack@arg+2,f
  2123  06A9  0B89               	decfsz	9,f
  2124  06AA  2EA6               	goto	u485
  2125  06AB                     l786:	
  2126  06AB  1FF1               	btfss	___ftpack@arg+1,7
  2127  06AC  2EA3               	goto	l784
  2128  06AD  1873               	btfsc	___ftpack@exp,0
  2129  06AE  2EB5               	goto	l298
  2130  06AF  30FF               	movlw	255
  2131  06B0  05F0               	andwf	___ftpack@arg,f
  2132  06B1  307F               	movlw	127
  2133  06B2  05F1               	andwf	___ftpack@arg+1,f
  2134  06B3  30FF               	movlw	255
  2135  06B4  05F2               	andwf	___ftpack@arg+2,f
  2136  06B5                     l298:	
  2137  06B5  1003               	clrc
  2138  06B6  0CF3               	rrf	___ftpack@exp,f
  2139  06B7  0873               	movf	___ftpack@exp,w
  2140  06B8  00F5               	movwf	??___ftpack
  2141  06B9  01F6               	clrf	??___ftpack+1
  2142  06BA  01F7               	clrf	??___ftpack+2
  2143  06BB  3010               	movlw	16
  2144  06BC                     u515:	
  2145  06BC  35F5               	lslf	??___ftpack,f
  2146  06BD  0DF6               	rlf	??___ftpack+1,f
  2147  06BE  0DF7               	rlf	??___ftpack+2,f
  2148  06BF  0B89               	decfsz	9,f
  2149  06C0  2EBC               	goto	u515
  2150  06C1  0875               	movf	??___ftpack,w
  2151  06C2  04F0               	iorwf	___ftpack@arg,f
  2152  06C3  0876               	movf	??___ftpack+1,w
  2153  06C4  04F1               	iorwf	___ftpack@arg+1,f
  2154  06C5  0877               	movf	??___ftpack+2,w
  2155  06C6  04F2               	iorwf	___ftpack@arg+2,f
  2156  06C7  0874               	movf	___ftpack@sign,w
  2157  06C8  1903               	btfsc	3,2
  2158  06C9  0008               	return
  2159  06CA  17F2               	bsf	___ftpack@arg+2,7
  2160  06CB  0008               	return
  2161  06CC                     __end_of___ftpack:	
  2162                           
  2163                           	psect	text5
  2164  058B                     __ptext5:	
  2165 ;; *************** function _TMR2_WriteTimer *****************
  2166 ;; Defined at:
  2167 ;;		line 99 in file "mcc_generated_files/tmr2.c"
  2168 ;; Parameters:    Size  Location     Type
  2169 ;;  timerVal        1    wreg     unsigned char 
  2170 ;; Auto vars:     Size  Location     Type
  2171 ;;  timerVal        1    0[COMMON] unsigned char 
  2172 ;; Return value:  Size  Location     Type
  2173 ;;		None               void
  2174 ;; Registers used:
  2175 ;;		wreg
  2176 ;; Tracked objects:
  2177 ;;		On entry : 0/0
  2178 ;;		On exit  : 0/0
  2179 ;;		Unchanged: 0/0
  2180 ;; Data sizes:     COMMON   BANK0   BANK1   BANK2   BANK3   BANK4   BANK5   BANK6
  2181 ;;      Params:         0       0       0       0       0       0       0       0
  2182 ;;      Locals:         1       0       0       0       0       0       0       0
  2183 ;;      Temps:          0       0       0       0       0       0       0       0
  2184 ;;      Totals:         1       0       0       0       0       0       0       0
  2185 ;;Total ram usage:        1 bytes
  2186 ;; Hardware stack levels used:    1
  2187 ;; This function calls:
  2188 ;;		Nothing
  2189 ;; This function is called by:
  2190 ;;		_main
  2191 ;; This function uses a non-reentrant model
  2192 ;;
  2193                           
  2194                           
  2195                           ;psect for function _TMR2_WriteTimer
  2196  058B                     _TMR2_WriteTimer:	
  2197                           
  2198                           ;incstack = 0
  2199                           ; Regs used in _TMR2_WriteTimer: [wreg]
  2200                           ;TMR2_WriteTimer@timerVal stored from wreg
  2201  058B  00F0               	movwf	TMR2_WriteTimer@timerVal
  2202                           
  2203                           ;tmr2.c: 102: TMR2 = timerVal;
  2204  058C  0870               	movf	TMR2_WriteTimer@timerVal,w
  2205  058D  0020               	movlb	0	; select bank0
  2206  058E  009A               	movwf	26	;volatile
  2207  058F  0008               	return
  2208  0590                     __end_of_TMR2_WriteTimer:	
  2209                           
  2210                           	psect	text6
  2211  0586                     __ptext6:	
  2212 ;; *************** function _TMR2_LoadPeriodRegister *****************
  2213 ;; Defined at:
  2214 ;;		line 105 in file "mcc_generated_files/tmr2.c"
  2215 ;; Parameters:    Size  Location     Type
  2216 ;;  periodVal       1    wreg     unsigned char 
  2217 ;; Auto vars:     Size  Location     Type
  2218 ;;  periodVal       1    0[COMMON] unsigned char 
  2219 ;; Return value:  Size  Location     Type
  2220 ;;		None               void
  2221 ;; Registers used:
  2222 ;;		wreg
  2223 ;; Tracked objects:
  2224 ;;		On entry : 0/0
  2225 ;;		On exit  : 0/0
  2226 ;;		Unchanged: 0/0
  2227 ;; Data sizes:     COMMON   BANK0   BANK1   BANK2   BANK3   BANK4   BANK5   BANK6
  2228 ;;      Params:         0       0       0       0       0       0       0       0
  2229 ;;      Locals:         1       0       0       0       0       0       0       0
  2230 ;;      Temps:          0       0       0       0       0       0       0       0
  2231 ;;      Totals:         1       0       0       0       0       0       0       0
  2232 ;;Total ram usage:        1 bytes
  2233 ;; Hardware stack levels used:    1
  2234 ;; This function calls:
  2235 ;;		Nothing
  2236 ;; This function is called by:
  2237 ;;		_main
  2238 ;; This function uses a non-reentrant model
  2239 ;;
  2240                           
  2241                           
  2242                           ;psect for function _TMR2_LoadPeriodRegister
  2243  0586                     _TMR2_LoadPeriodRegister:	
  2244                           
  2245                           ;incstack = 0
  2246                           ; Regs used in _TMR2_LoadPeriodRegister: [wreg]
  2247                           ;TMR2_LoadPeriodRegister@periodVal stored from wreg
  2248  0586  00F0               	movwf	TMR2_LoadPeriodRegister@periodVal
  2249                           
  2250                           ;tmr2.c: 107: PR2 = periodVal;
  2251  0587  0870               	movf	TMR2_LoadPeriodRegister@periodVal,w
  2252  0588  0020               	movlb	0	; select bank0
  2253  0589  009B               	movwf	27	;volatile
  2254  058A  0008               	return
  2255  058B                     __end_of_TMR2_LoadPeriodRegister:	
  2256                           
  2257                           	psect	text7
  2258  05AC                     __ptext7:	
  2259 ;; *************** function _SYSTEM_Initialize *****************
  2260 ;; Defined at:
  2261 ;;		line 72 in file "mcc_generated_files/mcc.c"
  2262 ;; Parameters:    Size  Location     Type
  2263 ;;		None
  2264 ;; Auto vars:     Size  Location     Type
  2265 ;;		None
  2266 ;; Return value:  Size  Location     Type
  2267 ;;		None               void
  2268 ;; Registers used:
  2269 ;;		wreg, status,2, status,0, pclath, cstack
  2270 ;; Tracked objects:
  2271 ;;		On entry : 0/0
  2272 ;;		On exit  : 0/0
  2273 ;;		Unchanged: 0/0
  2274 ;; Data sizes:     COMMON   BANK0   BANK1   BANK2   BANK3   BANK4   BANK5   BANK6
  2275 ;;      Params:         0       0       0       0       0       0       0       0
  2276 ;;      Locals:         0       0       0       0       0       0       0       0
  2277 ;;      Temps:          0       0       0       0       0       0       0       0
  2278 ;;      Totals:         0       0       0       0       0       0       0       0
  2279 ;;Total ram usage:        0 bytes
  2280 ;; Hardware stack levels used:    1
  2281 ;; Hardware stack levels required when called:    2
  2282 ;; This function calls:
  2283 ;;		_OSCILLATOR_Initialize
  2284 ;;		_PIN_MANAGER_Initialize
  2285 ;;		_PWM3_Initialize
  2286 ;;		_TMR2_Initialize
  2287 ;; This function is called by:
  2288 ;;		_main
  2289 ;; This function uses a non-reentrant model
  2290 ;;
  2291                           
  2292                           
  2293                           ;psect for function _SYSTEM_Initialize
  2294  05AC                     _SYSTEM_Initialize:	
  2295                           
  2296                           ;mcc.c: 74: OSCILLATOR_Initialize();
  2297                           
  2298                           ;incstack = 0
  2299                           ; Regs used in _SYSTEM_Initialize: [wreg+status,2+status,0+pclath+cstack]
  2300  05AC  3185  2590  3185   	fcall	_OSCILLATOR_Initialize
  2301                           
  2302                           ;mcc.c: 75: PIN_MANAGER_Initialize();
  2303  05AF  3185  25F0  3185   	fcall	_PIN_MANAGER_Initialize
  2304                           
  2305                           ;mcc.c: 76: TMR2_Initialize();
  2306  05B2  3185  2598  3185   	fcall	_TMR2_Initialize
  2307                           
  2308                           ;mcc.c: 77: PWM3_Initialize();
  2309  05B5  3185  25A1         	fcall	_PWM3_Initialize
  2310  05B7  0008               	return
  2311  05B8                     __end_of_SYSTEM_Initialize:	
  2312                           
  2313                           	psect	text8
  2314  0598                     __ptext8:	
  2315 ;; *************** function _TMR2_Initialize *****************
  2316 ;; Defined at:
  2317 ;;		line 58 in file "mcc_generated_files/tmr2.c"
  2318 ;; Parameters:    Size  Location     Type
  2319 ;;		None
  2320 ;; Auto vars:     Size  Location     Type
  2321 ;;		None
  2322 ;; Return value:  Size  Location     Type
  2323 ;;		None               void
  2324 ;; Registers used:
  2325 ;;		wreg, status,2, status,0, pclath, cstack
  2326 ;; Tracked objects:
  2327 ;;		On entry : 0/0
  2328 ;;		On exit  : 0/0
  2329 ;;		Unchanged: 0/0
  2330 ;; Data sizes:     COMMON   BANK0   BANK1   BANK2   BANK3   BANK4   BANK5   BANK6
  2331 ;;      Params:         0       0       0       0       0       0       0       0
  2332 ;;      Locals:         0       0       0       0       0       0       0       0
  2333 ;;      Temps:          0       0       0       0       0       0       0       0
  2334 ;;      Totals:         0       0       0       0       0       0       0       0
  2335 ;;Total ram usage:        0 bytes
  2336 ;; Hardware stack levels used:    1
  2337 ;; Hardware stack levels required when called:    1
  2338 ;; This function calls:
  2339 ;;		_TMR2_StartTimer
  2340 ;; This function is called by:
  2341 ;;		_SYSTEM_Initialize
  2342 ;; This function uses a non-reentrant model
  2343 ;;
  2344                           
  2345                           
  2346                           ;psect for function _TMR2_Initialize
  2347  0598                     _TMR2_Initialize:	
  2348                           
  2349                           ;tmr2.c: 63: T2CON = 0x00;
  2350                           
  2351                           ;incstack = 0
  2352                           ; Regs used in _TMR2_Initialize: [wreg+status,2+status,0+pclath+cstack]
  2353  0598  0020               	movlb	0	; select bank0
  2354  0599  019C               	clrf	28	;volatile
  2355                           
  2356                           ;tmr2.c: 66: PR2 = 0xFF;
  2357  059A  30FF               	movlw	255
  2358  059B  009B               	movwf	27	;volatile
  2359                           
  2360                           ;tmr2.c: 69: TMR2 = 0x00;
  2361  059C  019A               	clrf	26	;volatile
  2362                           
  2363                           ;tmr2.c: 72: PIR1bits.TMR2IF = 0;
  2364  059D  1091               	bcf	17,1	;volatile
  2365                           
  2366                           ;tmr2.c: 75: TMR2_StartTimer();
  2367  059E  3185  2583         	fcall	_TMR2_StartTimer
  2368  05A0  0008               	return
  2369  05A1                     __end_of_TMR2_Initialize:	
  2370                           
  2371                           	psect	text9
  2372  0583                     __ptext9:	
  2373 ;; *************** function _TMR2_StartTimer *****************
  2374 ;; Defined at:
  2375 ;;		line 78 in file "mcc_generated_files/tmr2.c"
  2376 ;; Parameters:    Size  Location     Type
  2377 ;;		None
  2378 ;; Auto vars:     Size  Location     Type
  2379 ;;		None
  2380 ;; Return value:  Size  Location     Type
  2381 ;;		None               void
  2382 ;; Registers used:
  2383 ;;		None
  2384 ;; Tracked objects:
  2385 ;;		On entry : 0/0
  2386 ;;		On exit  : 0/0
  2387 ;;		Unchanged: 0/0
  2388 ;; Data sizes:     COMMON   BANK0   BANK1   BANK2   BANK3   BANK4   BANK5   BANK6
  2389 ;;      Params:         0       0       0       0       0       0       0       0
  2390 ;;      Locals:         0       0       0       0       0       0       0       0
  2391 ;;      Temps:          0       0       0       0       0       0       0       0
  2392 ;;      Totals:         0       0       0       0       0       0       0       0
  2393 ;;Total ram usage:        0 bytes
  2394 ;; Hardware stack levels used:    1
  2395 ;; This function calls:
  2396 ;;		Nothing
  2397 ;; This function is called by:
  2398 ;;		_TMR2_Initialize
  2399 ;; This function uses a non-reentrant model
  2400 ;;
  2401                           
  2402                           
  2403                           ;psect for function _TMR2_StartTimer
  2404  0583                     _TMR2_StartTimer:	
  2405                           
  2406                           ;tmr2.c: 81: T2CONbits.TMR2ON = 1;
  2407                           
  2408                           ;incstack = 0
  2409                           ; Regs used in _TMR2_StartTimer: []
  2410  0583  0020               	movlb	0	; select bank0
  2411  0584  151C               	bsf	28,2	;volatile
  2412  0585  0008               	return
  2413  0586                     __end_of_TMR2_StartTimer:	
  2414                           
  2415                           	psect	text10
  2416  05A1                     __ptext10:	
  2417 ;; *************** function _PWM3_Initialize *****************
  2418 ;; Defined at:
  2419 ;;		line 64 in file "mcc_generated_files/pwm3.c"
  2420 ;; Parameters:    Size  Location     Type
  2421 ;;		None
  2422 ;; Auto vars:     Size  Location     Type
  2423 ;;		None
  2424 ;; Return value:  Size  Location     Type
  2425 ;;		None               void
  2426 ;; Registers used:
  2427 ;;		wreg, status,2, status,0
  2428 ;; Tracked objects:
  2429 ;;		On entry : 0/0
  2430 ;;		On exit  : 0/0
  2431 ;;		Unchanged: 0/0
  2432 ;; Data sizes:     COMMON   BANK0   BANK1   BANK2   BANK3   BANK4   BANK5   BANK6
  2433 ;;      Params:         0       0       0       0       0       0       0       0
  2434 ;;      Locals:         0       0       0       0       0       0       0       0
  2435 ;;      Temps:          0       0       0       0       0       0       0       0
  2436 ;;      Totals:         0       0       0       0       0       0       0       0
  2437 ;;Total ram usage:        0 bytes
  2438 ;; Hardware stack levels used:    1
  2439 ;; This function calls:
  2440 ;;		Nothing
  2441 ;; This function is called by:
  2442 ;;		_SYSTEM_Initialize
  2443 ;; This function uses a non-reentrant model
  2444 ;;
  2445                           
  2446                           
  2447                           ;psect for function _PWM3_Initialize
  2448  05A1                     _PWM3_Initialize:	
  2449                           
  2450                           ;pwm3.c: 68: PWM3CON = 0x80;
  2451                           
  2452                           ;incstack = 0
  2453                           ; Regs used in _PWM3_Initialize: [wreg+status,2+status,0]
  2454  05A1  3080               	movlw	128
  2455  05A2  002C               	movlb	12	; select bank12
  2456  05A3  0099               	movwf	25	;volatile
  2457                           
  2458                           ;pwm3.c: 71: PWM3DCH = 0x7F;
  2459  05A4  307F               	movlw	127
  2460  05A5  0098               	movwf	24	;volatile
  2461                           
  2462                           ;pwm3.c: 74: PWM3DCL = 0x30;
  2463  05A6  3030               	movlw	48
  2464  05A7  0097               	movwf	23	;volatile
  2465                           
  2466                           ;pwm3.c: 78: CCPTMRSbits.P3TSEL = 0x0;
  2467  05A8  30CF               	movlw	-49
  2468  05A9  0025               	movlb	5	; select bank5
  2469  05AA  059E               	andwf	30,f	;volatile
  2470  05AB  0008               	return
  2471  05AC                     __end_of_PWM3_Initialize:	
  2472                           
  2473                           	psect	text11
  2474  05F0                     __ptext11:	
  2475 ;; *************** function _PIN_MANAGER_Initialize *****************
  2476 ;; Defined at:
  2477 ;;		line 51 in file "mcc_generated_files/pin_manager.c"
  2478 ;; Parameters:    Size  Location     Type
  2479 ;;		None
  2480 ;; Auto vars:     Size  Location     Type
  2481 ;;  state           1    0[COMMON] unsigned char 
  2482 ;; Return value:  Size  Location     Type
  2483 ;;		None               void
  2484 ;; Registers used:
  2485 ;;		wreg, status,2, status,0
  2486 ;; Tracked objects:
  2487 ;;		On entry : 0/0
  2488 ;;		On exit  : 0/0
  2489 ;;		Unchanged: 0/0
  2490 ;; Data sizes:     COMMON   BANK0   BANK1   BANK2   BANK3   BANK4   BANK5   BANK6
  2491 ;;      Params:         0       0       0       0       0       0       0       0
  2492 ;;      Locals:         1       0       0       0       0       0       0       0
  2493 ;;      Temps:          0       0       0       0       0       0       0       0
  2494 ;;      Totals:         1       0       0       0       0       0       0       0
  2495 ;;Total ram usage:        1 bytes
  2496 ;; Hardware stack levels used:    1
  2497 ;; This function calls:
  2498 ;;		Nothing
  2499 ;; This function is called by:
  2500 ;;		_SYSTEM_Initialize
  2501 ;; This function uses a non-reentrant model
  2502 ;;
  2503                           
  2504                           
  2505                           ;psect for function _PIN_MANAGER_Initialize
  2506  05F0                     _PIN_MANAGER_Initialize:	
  2507                           
  2508                           ;pin_manager.c: 53: LATA = 0x00;
  2509                           
  2510                           ;incstack = 0
  2511                           ; Regs used in _PIN_MANAGER_Initialize: [wreg+status,2+status,0]
  2512  05F0  0022               	movlb	2	; select bank2
  2513  05F1  018C               	clrf	12	;volatile
  2514                           
  2515                           ;pin_manager.c: 54: TRISA = 0x31;
  2516  05F2  3031               	movlw	49
  2517  05F3  0021               	movlb	1	; select bank1
  2518  05F4  008C               	movwf	12	;volatile
  2519                           
  2520                           ;pin_manager.c: 55: ANSELA = 0x11;
  2521  05F5  3011               	movlw	17
  2522  05F6  0023               	movlb	3	; select bank3
  2523  05F7  008C               	movwf	12	;volatile
  2524                           
  2525                           ;pin_manager.c: 56: WPUA = 0x00;
  2526  05F8  0024               	movlb	4	; select bank4
  2527  05F9  018C               	clrf	12	;volatile
  2528                           
  2529                           ;pin_manager.c: 58: LATC = 0x00;
  2530  05FA  0022               	movlb	2	; select bank2
  2531  05FB  018E               	clrf	14	;volatile
  2532                           
  2533                           ;pin_manager.c: 59: TRISC = 0x3F;
  2534  05FC  303F               	movlw	63
  2535  05FD  0021               	movlb	1	; select bank1
  2536  05FE  008E               	movwf	14	;volatile
  2537                           
  2538                           ;pin_manager.c: 60: ANSELC = 0x3F;
  2539  05FF  303F               	movlw	63
  2540  0600  0023               	movlb	3	; select bank3
  2541  0601  008E               	movwf	14	;volatile
  2542                           
  2543                           ;pin_manager.c: 61: WPUC = 0x00;
  2544  0602  0024               	movlb	4	; select bank4
  2545  0603  018E               	clrf	14	;volatile
  2546                           
  2547                           ;pin_manager.c: 63: OPTION_REGbits.nWPUEN = 0x01;
  2548  0604  0021               	movlb	1	; select bank1
  2549  0605  1795               	bsf	21,7	;volatile
  2550                           
  2551                           ;pin_manager.c: 64: bool state = GIE;
  2552  0606  3000               	movlw	0
  2553  0607  1B8B               	btfsc	11,7	;volatile
  2554  0608  3001               	movlw	1
  2555  0609  00F0               	movwf	PIN_MANAGER_Initialize@state
  2556                           
  2557                           ;pin_manager.c: 65: GIE = 0;
  2558  060A  138B               	bcf	11,7	;volatile
  2559                           
  2560                           ;pin_manager.c: 66: PPSLOCK = 0x55;
  2561  060B  3055               	movlw	85
  2562  060C  003C               	movlb	28	; select bank28
  2563  060D  008F               	movwf	15	;volatile
  2564                           
  2565                           ;pin_manager.c: 67: PPSLOCK = 0xAA;
  2566  060E  30AA               	movlw	170
  2567  060F  008F               	movwf	15	;volatile
  2568                           
  2569                           ;pin_manager.c: 68: PPSLOCK = 0x00;
  2570  0610  018F               	clrf	15	;volatile
  2571                           
  2572                           ;pin_manager.c: 70: RA2PPSbits.RA2PPS = 0x0E;
  2573  0611  003D               	movlb	29	; select bank29
  2574  0612  0812               	movf	18,w	;volatile
  2575  0613  39E0               	andlw	-32
  2576  0614  380E               	iorlw	14
  2577  0615  0092               	movwf	18	;volatile
  2578                           
  2579                           ;pin_manager.c: 71: PPSLOCK = 0x55;
  2580  0616  3055               	movlw	85
  2581  0617  003C               	movlb	28	; select bank28
  2582  0618  008F               	movwf	15	;volatile
  2583                           
  2584                           ;pin_manager.c: 72: PPSLOCK = 0xAA;
  2585  0619  30AA               	movlw	170
  2586  061A  008F               	movwf	15	;volatile
  2587                           
  2588                           ;pin_manager.c: 73: PPSLOCK = 0x01;
  2589  061B  3001               	movlw	1
  2590  061C  008F               	movwf	15	;volatile
  2591                           
  2592                           ;pin_manager.c: 74: GIE = state;
  2593  061D  1C70               	btfss	PIN_MANAGER_Initialize@state,0
  2594  061E  2E21               	goto	u390
  2595  061F  178B               	bsf	11,7	;volatile
  2596  0620  0008               	return
  2597  0621                     u390:	
  2598  0621  138B               	bcf	11,7	;volatile
  2599  0622  0008               	return
  2600  0623                     __end_of_PIN_MANAGER_Initialize:	
  2601                           
  2602                           	psect	text12
  2603  0590                     __ptext12:	
  2604 ;; *************** function _OSCILLATOR_Initialize *****************
  2605 ;; Defined at:
  2606 ;;		line 81 in file "mcc_generated_files/mcc.c"
  2607 ;; Parameters:    Size  Location     Type
  2608 ;;		None
  2609 ;; Auto vars:     Size  Location     Type
  2610 ;;		None
  2611 ;; Return value:  Size  Location     Type
  2612 ;;		None               void
  2613 ;; Registers used:
  2614 ;;		wreg, status,2
  2615 ;; Tracked objects:
  2616 ;;		On entry : 0/0
  2617 ;;		On exit  : 0/0
  2618 ;;		Unchanged: 0/0
  2619 ;; Data sizes:     COMMON   BANK0   BANK1   BANK2   BANK3   BANK4   BANK5   BANK6
  2620 ;;      Params:         0       0       0       0       0       0       0       0
  2621 ;;      Locals:         0       0       0       0       0       0       0       0
  2622 ;;      Temps:          0       0       0       0       0       0       0       0
  2623 ;;      Totals:         0       0       0       0       0       0       0       0
  2624 ;;Total ram usage:        0 bytes
  2625 ;; Hardware stack levels used:    1
  2626 ;; This function calls:
  2627 ;;		Nothing
  2628 ;; This function is called by:
  2629 ;;		_SYSTEM_Initialize
  2630 ;; This function uses a non-reentrant model
  2631 ;;
  2632                           
  2633                           
  2634                           ;psect for function _OSCILLATOR_Initialize
  2635  0590                     _OSCILLATOR_Initialize:	
  2636                           
  2637                           ;mcc.c: 84: OSCCON = 0x70;
  2638                           
  2639                           ;incstack = 0
  2640                           ; Regs used in _OSCILLATOR_Initialize: [wreg+status,2]
  2641  0590  3070               	movlw	112
  2642  0591  0021               	movlb	1	; select bank1
  2643  0592  0099               	movwf	25	;volatile
  2644                           
  2645                           ;mcc.c: 86: OSCSTAT = 0x00;
  2646  0593  019A               	clrf	26	;volatile
  2647                           
  2648                           ;mcc.c: 88: OSCTUNE = 0x00;
  2649  0594  0198               	clrf	24	;volatile
  2650  0595                     l96:	
  2651                           ;mcc.c: 93: {
  2652                           
  2653                           ;mcc.c: 92: while(PLLR == 0)
  2654                           
  2655  0595  1B1A               	btfsc	26,6	;volatile
  2656  0596  0008               	return
  2657  0597  2D95               	goto	l96
  2658  0598                     __end_of_OSCILLATOR_Initialize:	
  2659                           
  2660                           	psect	text13
  2661  05D2                     __ptext13:	
  2662 ;; *************** function _Delay *****************
  2663 ;; Defined at:
  2664 ;;		line 95 in file "main.c"
  2665 ;; Parameters:    Size  Location     Type
  2666 ;;  delayVal        2    0[COMMON] unsigned int 
  2667 ;; Auto vars:     Size  Location     Type
  2668 ;;  millisec        2    2[COMMON] unsigned int 
  2669 ;; Return value:  Size  Location     Type
  2670 ;;		None               void
  2671 ;; Registers used:
  2672 ;;		wreg, status,2
  2673 ;; Tracked objects:
  2674 ;;		On entry : 0/0
  2675 ;;		On exit  : 0/0
  2676 ;;		Unchanged: 0/0
  2677 ;; Data sizes:     COMMON   BANK0   BANK1   BANK2   BANK3   BANK4   BANK5   BANK6
  2678 ;;      Params:         2       0       0       0       0       0       0       0
  2679 ;;      Locals:         2       0       0       0       0       0       0       0
  2680 ;;      Temps:          0       0       0       0       0       0       0       0
  2681 ;;      Totals:         4       0       0       0       0       0       0       0
  2682 ;;Total ram usage:        4 bytes
  2683 ;; Hardware stack levels used:    1
  2684 ;; This function calls:
  2685 ;;		Nothing
  2686 ;; This function is called by:
  2687 ;;		_main
  2688 ;; This function uses a non-reentrant model
  2689 ;;
  2690                           
  2691                           
  2692                           ;psect for function _Delay
  2693  05D2                     _Delay:	
  2694                           
  2695                           ;main.c: 97: uint16_t millisec=1000;
  2696                           
  2697                           ;incstack = 0
  2698                           ; Regs used in _Delay: [wreg+status,2]
  2699  05D2  30E8               	movlw	232
  2700  05D3  00F2               	movwf	Delay@millisec
  2701  05D4  3003               	movlw	3
  2702  05D5  00F3               	movwf	Delay@millisec+1
  2703  05D6                     l812:	
  2704                           ;main.c: 98: while(delayVal--)
  2705                           
  2706  05D6  3001               	movlw	1
  2707  05D7  02F0               	subwf	Delay@delayVal,f
  2708  05D8  3000               	movlw	0
  2709  05D9  3BF1               	subwfb	Delay@delayVal+1,f
  2710  05DA  30FF               	movlw	255
  2711  05DB  0671               	xorwf	Delay@delayVal+1,w
  2712  05DC  1D03               	skipz
  2713  05DD  2DE0               	goto	u555
  2714  05DE  30FF               	movlw	255
  2715  05DF  0670               	xorwf	Delay@delayVal,w
  2716  05E0                     u555:	
  2717  05E0  1903               	btfsc	3,2
  2718  05E1  0008               	return
  2719                           
  2720                           ;main.c: 99: for(millisec=0;millisec<=1000;millisec++);
  2721  05E2  01F2               	clrf	Delay@millisec
  2722  05E3  01F3               	clrf	Delay@millisec+1
  2723  05E4                     L2:	
  2724  05E4  3003               	movlw	3
  2725  05E5  0273               	subwf	Delay@millisec+1,w
  2726  05E6  30E9               	movlw	233
  2727  05E7  1903               	skipnz
  2728  05E8  0272               	subwf	Delay@millisec,w
  2729  05E9  1803               	btfsc	3,0
  2730  05EA  2DD6               	goto	l812
  2731  05EB  3001               	movlw	1
  2732  05EC  07F2               	addwf	Delay@millisec,f
  2733  05ED  3000               	movlw	0
  2734  05EE  3DF3               	addwfc	Delay@millisec+1,f
  2735  05EF  2DE4               	goto	L2
  2736  05F0                     __end_of_Delay:	
  2737  007E                     btemp	set	126	;btemp
  2738  007E                     pic14e$flags	set	126
  2739  007E                     wtemp	set	126
  2740  007E                     wtemp0	set	126
  2741  0080                     wtemp1	set	128
  2742  0082                     wtemp2	set	130
  2743  0084                     wtemp3	set	132
  2744  0086                     wtemp4	set	134
  2745  0088                     wtemp5	set	136
  2746  007F                     wtemp6	set	127
  2747  007E                     ttemp	set	126
  2748  007E                     ttemp0	set	126
  2749  0081                     ttemp1	set	129
  2750  0084                     ttemp2	set	132
  2751  0087                     ttemp3	set	135
  2752  007F                     ttemp4	set	127
  2753  007E                     ltemp	set	126
  2754  007E                     ltemp0	set	126
  2755  0082                     ltemp1	set	130
  2756  0086                     ltemp2	set	134
  2757  0080                     ltemp3	set	128


Data Sizes:
    Strings     0
    Constant    0
    Data        0
    BSS         0
    Persistent  0
    Stack       0

Auto Spaces:
    Space          Size  Autos    Used
    COMMON           14     13      13
    BANK0            80     36      36
    BANK1            80      0       0
    BANK2            80      0       0
    BANK3            80      0       0
    BANK4            80      0       0
    BANK5            80      0       0
    BANK6            16      0       0

Pointer List with Targets:

    None.

Critical Paths under _main in COMMON

    _main->___lbtoft
    ___lbtoft->___ftpack
    ___fttol->___lbtoft
    ___ftdiv->___lbtoft
    _SYSTEM_Initialize->_PIN_MANAGER_Initialize

Critical Paths under _main in BANK0

    _main->___fttol
    ___fttol->___ftdiv
    ___ftdiv->___lbtoft

Critical Paths under _main in BANK1

    None.

Critical Paths under _main in BANK2

    None.

Critical Paths under _main in BANK3

    None.

Critical Paths under _main in BANK4

    None.

Critical Paths under _main in BANK5

    None.

Critical Paths under _main in BANK6

    None.

Call Graph Tables:

 ---------------------------------------------------------------------------------
 (Depth) Function   	        Calls       Base Space   Used Autos Params    Refs
 ---------------------------------------------------------------------------------
 (0) _main                                                 3     3      0    3508
                                             12 COMMON     1     1      0
                                             34 BANK0      2     2      0
                              _Delay
                  _SYSTEM_Initialize
            _TMR2_LoadPeriodRegister
                    _TMR2_WriteTimer
                            ___ftdiv
                            ___fttol
                           ___lbtoft
 ---------------------------------------------------------------------------------
 (1) ___lbtoft                                             8     5      3    1299
                                              8 COMMON     4     1      3
                                              0 BANK0      4     4      0
                           ___ftpack
 ---------------------------------------------------------------------------------
 (1) ___fttol                                             14    10      4     295
                                             20 BANK0     14    10      4
                            ___ftdiv (ARG)
                           ___lbtoft (ARG)
 ---------------------------------------------------------------------------------
 (1) ___ftdiv                                             16    10      6    1643
                                              4 BANK0     16    10      6
                           ___ftpack
                           ___lbtoft (ARG)
 ---------------------------------------------------------------------------------
 (2) ___ftpack                                             8     3      5    1277
                                              0 COMMON     8     3      5
 ---------------------------------------------------------------------------------
 (1) _TMR2_WriteTimer                                      1     1      0      22
                                              0 COMMON     1     1      0
 ---------------------------------------------------------------------------------
 (1) _TMR2_LoadPeriodRegister                              1     1      0      22
                                              0 COMMON     1     1      0
 ---------------------------------------------------------------------------------
 (1) _SYSTEM_Initialize                                    0     0      0      23
              _OSCILLATOR_Initialize
             _PIN_MANAGER_Initialize
                    _PWM3_Initialize
                    _TMR2_Initialize
 ---------------------------------------------------------------------------------
 (2) _TMR2_Initialize                                      0     0      0       0
                    _TMR2_StartTimer
 ---------------------------------------------------------------------------------
 (3) _TMR2_StartTimer                                      0     0      0       0
 ---------------------------------------------------------------------------------
 (2) _PWM3_Initialize                                      0     0      0       0
 ---------------------------------------------------------------------------------
 (2) _PIN_MANAGER_Initialize                               1     1      0      23
                                              0 COMMON     1     1      0
 ---------------------------------------------------------------------------------
 (2) _OSCILLATOR_Initialize                                0     0      0       0
 ---------------------------------------------------------------------------------
 (1) _Delay                                                4     2      2     112
                                              0 COMMON     4     2      2
 ---------------------------------------------------------------------------------
 Estimated maximum stack depth 3
 ---------------------------------------------------------------------------------

 Call Graph Graphs:

 _main (ROOT)
   _Delay
   _SYSTEM_Initialize
     _OSCILLATOR_Initialize
     _PIN_MANAGER_Initialize
     _PWM3_Initialize
     _TMR2_Initialize
       _TMR2_StartTimer
   _TMR2_LoadPeriodRegister
   _TMR2_WriteTimer
   ___ftdiv
     ___ftpack
     ___lbtoft (ARG)
       ___ftpack
   ___fttol
     ___ftdiv (ARG)
       ___ftpack
       ___lbtoft (ARG)
         ___ftpack
     ___lbtoft (ARG)
       ___ftpack
   ___lbtoft
     ___ftpack

 Address spaces:
Name               Size   Autos  Total    Cost      Usage
BIGRAM             1F0      0       0       0        0.0%
NULL                 0      0       0       0        0.0%
CODE                 0      0       0       0        0.0%
BITCOMMON            E      0       0       1        0.0%
BITSFR0              0      0       0       1        0.0%
SFR0                 0      0       0       1        0.0%
COMMON               E      D       D       2       92.9%
BITSFR1              0      0       0       2        0.0%
SFR1                 0      0       0       2        0.0%
BITSFR2              0      0       0       3        0.0%
SFR2                 0      0       0       3        0.0%
STACK                0      0       0       3        0.0%
BITSFR3              0      0       0       4        0.0%
SFR3                 0      0       0       4        0.0%
ABS                  0      0       0       4        0.0%
BITBANK0            50      0       0       5        0.0%
BITSFR4              0      0       0       5        0.0%
SFR4                 0      0       0       5        0.0%
BANK0               50     24      24       6       45.0%
BITSFR5              0      0       0       6        0.0%
SFR5                 0      0       0       6        0.0%
BITBANK1            50      0       0       7        0.0%
BITSFR6              0      0       0       7        0.0%
SFR6                 0      0       0       7        0.0%
BANK1               50      0       0       8        0.0%
BITSFR7              0      0       0       8        0.0%
SFR7                 0      0       0       8        0.0%
BITBANK2            50      0       0       9        0.0%
BITSFR8              0      0       0       9        0.0%
SFR8                 0      0       0       9        0.0%
BANK2               50      0       0      10        0.0%
BITSFR9              0      0       0      10        0.0%
SFR9                 0      0       0      10        0.0%
BITBANK3            50      0       0      11        0.0%
BITSFR10             0      0       0      11        0.0%
SFR10                0      0       0      11        0.0%
BANK3               50      0       0      12        0.0%
BITSFR11             0      0       0      12        0.0%
SFR11                0      0       0      12        0.0%
BITBANK4            50      0       0      13        0.0%
BITSFR12             0      0       0      13        0.0%
SFR12                0      0       0      13        0.0%
BANK4               50      0       0      14        0.0%
BITSFR13             0      0       0      14        0.0%
SFR13                0      0       0      14        0.0%
BITBANK5            50      0       0      15        0.0%
BITSFR14             0      0       0      15        0.0%
SFR14                0      0       0      15        0.0%
BANK5               50      0       0      16        0.0%
BITSFR15             0      0       0      16        0.0%
SFR15                0      0       0      16        0.0%
BITBANK6            10      0       0      17        0.0%
BITSFR16             0      0       0      17        0.0%
SFR16                0      0       0      17        0.0%
BANK6               10      0       0      18        0.0%
BITSFR17             0      0       0      18        0.0%
SFR17                0      0       0      18        0.0%
BITSFR18             0      0       0      19        0.0%
SFR18                0      0       0      19        0.0%
DATA                 0      0       0      19        0.0%
BITSFR19             0      0       0      20        0.0%
SFR19                0      0       0      20        0.0%
BITSFR20             0      0       0      21        0.0%
SFR20                0      0       0      21        0.0%
BITSFR21             0      0       0      22        0.0%
SFR21                0      0       0      22        0.0%
BITSFR22             0      0       0      23        0.0%
SFR22                0      0       0      23        0.0%
BITSFR23             0      0       0      24        0.0%
SFR23                0      0       0      24        0.0%
BITSFR24             0      0       0      25        0.0%
SFR24                0      0       0      25        0.0%
BITSFR25             0      0       0      26        0.0%
SFR25                0      0       0      26        0.0%
BITSFR26             0      0       0      27        0.0%
SFR26                0      0       0      27        0.0%
BITSFR27             0      0       0      28        0.0%
SFR27                0      0       0      28        0.0%
BITSFR28             0      0       0      29        0.0%
SFR28                0      0       0      29        0.0%
BITSFR29             0      0       0      30        0.0%
SFR29                0      0       0      30        0.0%
BITSFR30             0      0       0      31        0.0%
SFR30                0      0       0      31        0.0%
BITSFR31             0      0       0      32        0.0%
SFR31                0      0       0      32        0.0%


Microchip Technology PIC Macro Assembler V1.33 build 59893 
Symbol Table                                                                                   Fri Feb 13 17:44:31 2015

                     __CFG_CP$OFF 0000                                l96 0595                               l112 064E  
                             l292 069E                               l298 06B5                               l812 05D6  
                             l820 076A                               l840 07C1                               l770 0674  
                             l826 0780                               l774 067B                               l862 06E5  
                             l784 06A3                               l776 0685                               l848 07DA  
                             l880 0715                               l786 06AB                               l778 068A  
                             l890 0739                               l882 0723                               l892 073C  
                             l896 074A                               l888 0730                               _GIE 005F  
                             _PR2 001B                               u515 06BC                               u445 0680  
                             u605 07C2                               u390 0621                               u615 07D1  
                             u465 0699                               u625 07DB                               u555 05E0  
                             u715 0731                               u485 06A6                               u655 06EC  
                             u585 0792                               u595 07A2                               u685 0716  
                 _TMR2_Initialize 0598                      __CFG_BORV$LO 0000                               wreg 0009  
                    __CFG_IESO$ON 0000                      __CFG_LVP$OFF 0000                      ___ftdiv@cntr 002E  
                    ___ftdiv@sign 0033                              _LATA 010C                              _LATC 010E  
                            _PLLR 04D6                              _TMR2 001A                              _WPUA 020C  
                            _WPUC 020E                      __CFG_WRT$OFF 0000                     __CFG_FCMEN$ON 0000  
                            _main 0623                      ___ftpack@arg 0070                      ___ftpack@exp 0073  
                            btemp 007E                     main@DutyCycle 0042                     __CFG_BOREN$ON 0000  
                            ltemp 007E                              start 0002                              ttemp 007E  
                            wtemp 007E                     __CFG_MCLRE$ON 0000                     Delay@delayVal 0070  
                    ___fttol@exp1 0041                      ___fttol@lval 003D                     __CFG_PLLEN$ON 0000  
  __size_of_OSCILLATOR_Initialize 0008     __end_of_OSCILLATOR_Initialize 0598                             ?_main 0070  
                   __CFG_WDTE$OFF 0000                   __end_of___ftdiv 07FC                   __end_of___fttol 0753  
                           _T2CON 001C                             _LATA1 0861                             _TRISA 008C  
                           _TRISC 008E                             _Delay 05D2                     Delay@millisec 0072  
                   ___ftpack@sign 0074           __end_of_PWM3_Initialize 05AC                             ltemp0 007E  
                           ltemp1 0082                             ltemp2 0086                             ltemp3 0080  
                           ttemp0 007E                             ttemp1 0081                             ttemp2 0084  
                           ttemp3 0087                             ttemp4 007F                             status 0003  
                           wtemp0 007E                             wtemp1 0080                             wtemp2 0082  
                           wtemp3 0084                             wtemp4 0086                             wtemp5 0088  
                           wtemp6 007F                   _TMR2_StartTimer 0583  __size_of_TMR2_LoadPeriodRegister 0005  
                 __initialization 07FC                      __end_of_main 066C           __end_of_TMR2_Initialize 05A1  
                  __CFG_LPBOR$OFF 0000                            ??_main 007C                     ___fttol@sign1 003C  
                 _TMR2_WriteTimer 058B                            ?_Delay 0070                    __CFG_ZCDDIS$ON 0000  
                          _ANSELA 018C                            _ANSELC 018E                  __end_of___ftpack 06CC  
                __end_of___lbtoft 05D2                    main@TimerValue 0043                            _OSCCON 0099  
                  __CFG_PWRTE$OFF 0000                    __CFG_STVREN$ON 0000                         ??___ftdiv 002A  
                       ??___fttol 0038           __end_of_TMR2_StartTimer 0586                  ?_PWM3_Initialize 0070  
               _SYSTEM_Initialize 05AC           __end_of__initialization 07FC                ?_SYSTEM_Initialize 0070  
                      ___ftdiv@f1 0027                        ___ftdiv@f2 0024                        ___ftdiv@f3 002F  
                      ___lbtoft@c 007B                     __end_of_Delay 05F0                        ___fttol@f1 0034  
                  __pcstackCOMMON 0070               ??_SYSTEM_Initialize 0071           __end_of_TMR2_WriteTimer 0590  
                ?_TMR2_Initialize 0070                    _OPTION_REGbits 0095                           ??_Delay 0072  
       __end_of_SYSTEM_Initialize 05B8           _TMR2_LoadPeriodRegister 0586                        __pmaintext 0623  
                 __CFG_PPS1WAY$ON 0000                         ?___ftpack 0070                         ?___lbtoft 0078  
                         _OSCSTAT 009A                           _OSCTUNE 0098                           _PWM3DCH 0618  
                         _PWM3DCL 0617                           _PWM3CON 0619                           _PPSLOCK 0E0F  
                ?_TMR2_StartTimer 0070                           ___ftdiv 0753                           ___fttol 06CC  
                ?_TMR2_WriteTimer 0070                        ??___ftpack 0075                        ??___lbtoft 0020  
                         __ptext0 0000                           __ptext1 05B8                           __ptext2 06CC  
                         __ptext3 0753                           __ptext4 066C                           __ptext5 058B  
                         __ptext6 0586                           __ptext7 05AC                           __ptext8 0598  
                         __ptext9 0583             _OSCILLATOR_Initialize 0590                         _T2CONbits 001C  
        ??_PIN_MANAGER_Initialize 0070         ??_TMR2_LoadPeriodRegister 0070        __size_of_SYSTEM_Initialize 000C  
            end_of_initialization 07FC                  __CFG_FOSC$INTOSC 0000           TMR2_WriteTimer@timerVal 0070  
                     ___ftdiv@exp 0032            ?_OSCILLATOR_Initialize 0070  TMR2_LoadPeriodRegister@periodVal 0070  
             start_initialization 07FC   __size_of_PIN_MANAGER_Initialize 0033          __size_of_PWM3_Initialize 000B  
                     _CCPTMRSbits 029E                 __size_of___ftpack 0060                 __size_of___lbtoft 001A  
                       ___latbits 0001                     __pcstackBANK0 0020          __size_of_TMR2_Initialize 0009  
          _PIN_MANAGER_Initialize 05F0                          ?___ftdiv 0024                          ?___fttol 0034  
                  __size_of_Delay 001E          __size_of_TMR2_StartTimer 0003                          _PIR1bits 0011  
               ??_PWM3_Initialize 0070          __size_of_TMR2_WriteTimer 0005                 ??_TMR2_Initialize 0070  
         ??_OSCILLATOR_Initialize 0070                  __size_of___ftdiv 00A9                  __size_of___fttol 0087  
                        ___ftpack 066C                          ___lbtoft 05B8          ?_TMR2_LoadPeriodRegister 0070  
                        __ptext10 05A1                          __ptext11 05F0                          __ptext12 0590  
                        __ptext13 05D2                     __size_of_main 0049                        _RA2PPSbits 0E92  
               ??_TMR2_StartTimer 0070       PIN_MANAGER_Initialize@state 0070                       pic14e$flags 007E  
               ??_TMR2_WriteTimer 0070           ?_PIN_MANAGER_Initialize 0070                 __CFG_CLKOUTEN$OFF 0000  
 __end_of_TMR2_LoadPeriodRegister 058B    __end_of_PIN_MANAGER_Initialize 0623                   _PWM3_Initialize 05A1  
